(dp0
S'cdidx0'
p1
I2
sS'dataanalyticsheadernewsmoneyMoneyaliuldivlili'
p2
I1
sS'habitatthumbnailhttpi2cdnturnercomcnnnextdamassets15103012262505snowleopardssmall11jpgdurationdescriptionlayouticonTypegalleryuri20151110autosgalleryfamousmoviecarsindexhtmlheadlineHoly'
p3
I1
sS'hreftvshows'
p4
I1
sS'all'
p5
I1
sS'onechild'
p6
I1
sS'cncontainer679D2B99E284F164200D14C1374A06C5'
p7
I1
sS'jihad'
p8
I1
sS'sleep'
p9
I1
sS'controversial'
p10
I1
sS'adivsectiondivliuldivdiv'
p11
I1
sS'hrefspecialsinternationalvideolandingfeatureshowvideos'
p12
I1
sS'trueinfo'
p13
I1
sS'Watch'
p14
I2
sS'bike'
p15
I1
sS'dataanalyticsheaderfeaturesallfeaturesAll'
p16
I1
sS'USRussia'
p17
I1
sS'idym1201335581857396761'
p18
I1
sS'trueenableAmazonVideoAds'
p19
I1
sS'nameeditionpreffooter'
p20
I2
sS'multiple'
p21
I1
sS'UTColdCookieNametosAgreedoldCookieExpirationTue'
p22
I1
sS'school'
p23
I1
sS'dataimghttpicdnturnercomcnneimg40logoscnnmexicopng'
p24
I1
sS'prize'
p25
I1
sS'tvshows'
p26
I1
sS'drawerulli'
p27
I8
sS'FRANCE'
p28
I2
sS'dataanalyticsfootervideocnnenespaolhrefspecialsinternationalvideolandingvideosespanolCNN'
p29
I1
sS'yearlayouturi20151117worldirelandsamesexmarriageindexhtmlheadlineGroundbreaking'
p30
I1
sS'Paul'
p31
I1
sS'shows'
p32
I3
sS'Take'
p33
I1
sS'dataanalyticsheadermorecnnleadershipCNN'
p34
I1
sS'Festival'
p35
I1
sS'classusermsgdiv'
p36
I1
sS'blue'
p37
I2
sS'selected'
p38
I3
sS'refugeesthumbnailhttpi2cdnturnercomcnnnextdamassets151117150226greecemacedoniarefugeeteasesmall11jpgdurationdescriptionlayouturi20151117opinionsisisnomilitaryanswerpatonwalshindexhtmlheadlineThe'
p39
I1
sS'asia'
p40
I1
sS'lights'
p41
I1
sS'above'
p42
I2
sS'new'
p43
I1
sS'Editiondivul'
p44
I2
sS'full16x91101large781medium461mini0small308xsmall221CNNJumbotronConfig'
p45
I1
sS'trueenableVideoPinning'
p46
I1
sS'never'
p47
I1
sS'Profiles'
p48
I3
sS'datavrcontentbox20151117europebataclanmemoriesparisattacksindexhtml'
p49
I1
sS'china'
p50
I1
sS'c1351000'
p51
I1
sS'converterServicecommonmodulesiframecurrencyConverterasplookupServiceservicescnndotcomlookupaspserviceHosthttpmarketsmoneycnncomCNNMetaRefreshRate'
p52
I1
sS'kids'
p53
I1
sS'Tuesday'
p54
I2
sS'changed'
p55
I1
sS'reports'
p56
I2
sS'Christiane'
p57
I1
sS'hrefstyle'
p58
I1
sS'396vrqpushautomate'
p59
I1
sS'8766314API'
p60
I1
sS'Privacy'
p61
I1
sS'Reservedspandivdiv'
p62
I1
sS'brought'
p63
I1
sS'cnnleadership'
p64
I1
sS'strongBrother'
p65
I1
sS'datavrcontentbox20151117worldparisattacksindexhtml'
p66
I1
sS'idintlhomepage1zone1'
p67
I1
sS'browse'
p68
I1
sS'hospital'
p69
I2
sS'NEEDLESstrong'
p70
I1
sS'arms'
p71
I1
sS'music'
p72
I1
sS'datavaluehttparabiccnncomArabiclili'
p73
I2
sS'preview'
p74
I2
sS'type'
p75
I1
sS'until'
p76
I1
sS'posting'
p77
I1
sS'mfooterbucketregionsli'
p78
I1
sS'Parisian'
p79
I1
sS'brings'
p80
I2
sS'windowconsole'
p81
I2
sS'aware'
p82
I1
sS'HIVpositive'
p83
I1
sS'Chanu003ca'
p84
I2
sS'must'
p85
I2
sS'me'
p86
I1
sS'rethinkspanspan'
p87
I1
sS'work'
p88
I1
sS'dataanalyticsfootermorecnnprofilesazhrefspecialsprofilesCNN'
p89
I1
sS'inpersistentCtaTextExperiencetemppassTempPassCNN10minCNNImageBreakpoints'
p90
I1
sS'give'
p91
I3
sS'cited'
p92
I1
sS'hreftermsTerms'
p93
I2
sS'morecontainerul'
p94
I1
sS'want'
p95
I2
sS'diamondsthumbnailhttpi2cdnturnercomcnnnextdamassets150904103055wallacechantease2small11jpgdurationdescriptionThe'
p96
I1
sS'travel'
p97
I1
sS'classlogo'
p98
I2
sS'isthumbnailhttpi2cdnturnercomcnnnextdamassets151106142012housingtheinterlacebyomaburoolescheerensingaporesmall11jpgdurationdescriptionIf'
p99
I1
sS'machine'
p100
I1
sS'datasrcmediumhttpi2cdnturnercomcnnnextdamassets15111715584804germanystadiumevacrestrictedexlarge169jpg'
p101
I1
sS'env'
p102
I1
sS'interview'
p103
I1
sS'Prophecy'
p104
I1
sS'after'
p105
I7
sS'trueenableJumbotronAutoScroll'
p106
I1
sS'enableGalleryAds'
p107
I1
sS'pageType'
p108
I1
sS'classsearchbutton'
p109
I1
sS'All'
p110
I1
sS'sectionName'
p111
I1
sS'Japanese'
p112
I1
sS'Walkers'
p113
I1
sS'toolsextras'
p114
I1
sS'classadadoopfloat01'
p115
I1
sS'green'
p116
I1
sS'ultimate'
p117
I1
sS'httptrafficoutbraincomnetworktrackpxladvid814actionviewCNNPushAlertsConfig'
p118
I1
sS'enableAdLock'
p119
I1
sS'feedback'
p120
I1
sS'over'
p121
I1
sS'idjssetepicspecfunction'
p122
I1
sS'dataanalyticsheaderregionsmiddleeastMiddle'
p123
I1
sS'somewhere'
p124
I1
sS'recreational'
p125
I1
sS'datavrcontentboxvideosworld20151117britishandfrenchfansuniteinsingingfrenchnationalanthemliveshotfosterwrncnn'
p126
I1
sS'hrefspecialsimpactyourworld'
p127
I2
sS'sleepthumbnailhttpi2cdnturnercomcnnnextdamassets15102318135803cnnphotossyrianchildrenteasesmall11jpgdurationdescriptionWhen'
p128
I1
sS'dataanalyticsheadermoretoolsextrasTools'
p129
I1
sS'supportedmessageTextThank'
p130
I1
sS'weeks'
p131
I1
sS'eventually'
p132
I1
sS'them'
p133
I2
sS'datavaluehttpuscnncominput'
p134
I2
sS'safe'
p135
I1
sS'jsscreamingbannertext'
p136
I1
sS'classsearchinputbuttonbuttonformdivdivdiv'
p137
I1
sS'hrefspecialsworldfreedomproject'
p138
I2
sS'dataanalyticsheadernewsintltravelTravelalili'
p139
I1
sS'bank'
p140
I1
sS'attacksspanspan'
p141
I1
sS'datasrcfull16x9httpi2cdnturnercomcnnnextdamassets151116131822isisthreatdcfull169jpg'
p142
I1
sS'rocks'
p143
I1
sS'dataanalyticsfooternewsstylehrefstyleStylealili'
p144
I1
sS'debug'
p145
I1
sS'went'
p146
I1
sS'Bataclan'
p147
I1
sS'ArabicCNN'
p148
I1
sS'series'
p149
I1
sS'datasrcxsmallhttpi2cdnturnercomcnnnextdamassets15111715584804germanystadiumevacrestrictedmediumplus169jpg'
p150
I1
sS'hrefvideostv20151117fatherexplainsparisterrorattackstoyoungsonorigcnn'
p151
I1
sS'typetextjavascriptDY'
p152
I1
sS'Novak'
p153
I1
sS'hrefaboutAbout'
p154
I1
sS'itemselectSet'
p155
I2
sS'cnidx0'
p156
I1
sS'cnidx1'
p157
I1
sS'adrefreshadbodydivdivbodyhtml'
p158
I1
sS'upthumbnailhttpi2cdnturnercomcnnnextdamassets15110313252302russiaplanecrash1103small11jpgdurationdescriptionlayouturi20151117worldglobalterrorreportindexhtmlheadlineGlobal'
p159
I1
sS'Heroesalili'
p160
I1
sS'classmfootertitlea'
p161
I7
sS'millions'
p162
I1
sS'c115840'
p163
I1
sS'classtitleQuick'
p164
I1
sS'Bondlayouturi20151101asiachinaschoolbullyingindexhtmlheadlineBullying'
p165
I1
sS'pgsection'
p166
I1
sS'23match'
p167
I1
sS'masterpiece'
p168
I1
sS'sectionsection'
p169
I6
sS'trueenableAspenForTOS'
p170
I1
sS'upspanspan'
p171
I1
sS'recovering'
p172
I1
sS'created'
p173
I1
sS'Photo'
p174
I2
sS'refugee'
p175
I1
sS'countriesu003ca'
p176
I1
sS'tdarkdiv'
p177
I2
sS'Cooper'
p178
I2
sS'features'
p179
I1
sS'trueCNNFeeds'
p180
I1
sS'weaponsthumbnailhttpi2cdnturnercomcnnnextdamassets151026173358syriaypgfightersgunbulletssmall11jpgdurationdescriptionlayout'
p181
I1
sS'falselog'
p182
I1
sS'Please'
p183
I3
sS'datasrcminihttpi2cdnturnercomcnnnextdamassets151116131822isisthreatdcsmall169jpg'
p184
I1
sS'classcdheadlineiconspanah3divdivarticlearticle'
p185
I14
sS'targetblankChow'
p186
I2
sS'comic'
p187
I1
sS'Burnettu003calayouticonTypevideourivideosentertainment20151117charliesheenhivpositivetodayshowmssorigcnnheadlineCharlie'
p188
I1
sS'service'
p189
I2
sS'2015thumbnailhttpi2cdnturnercomcnnnextdamassets141224103144attractions2015funtasyislandsmall11jpgdurationdescriptionlayouticonTypegalleryuri20151109worldgalleryclimatechange4degreesindexhtmlheadlineWhat'
p190
I1
sS'too'
p191
I1
sS'hrefmexicocnncom'
p192
I2
sS'inconvenient'
p193
I2
sS'sfstartptnew'
p194
I1
sS'foreditionpickeredtionfooterUSlabellili'
p195
I1
sS'cnnprofilesaz'
p196
I1
sS'collapse'
p197
I1
sS'zoneIds'
p198
I1
sS'classlcontainerdiv'
p199
I2
sS'affiliatesrchttpicdntravelcnncomsitesalllibrariesaffiliatelinkercnntravelaffiliatelinkerjspartnerHotelsapiKeyE6E67BB01FD2467688ED25D5F5BC095AapiBaseUrlhttpapitripadvisorcomapipartner20locationservicePathservicestravelpartnerHotelswidgetapiKeyE6E67BB01FD2467688ED25D5F5BC095AsrchttpicdntravelcnncomsitesalllibrariescnntravelcnntravelmapsjsmapapiMapboxapiKeypkeyJ1IjoiY25uZGlnaXRhbCIsImEiOiJhMmI0NTFkNWMzNmMyODU4NTQyMjQzNWFkM2I5OGFkMCJ9S01hv9vVgIbHvy1QuAsoyQoptionsKeymapboxaccesstokenCNNUserMessageConfig'
p200
I1
sS'Sep'
p201
I2
sS'classlfooterdiv'
p202
I1
sS'nations'
p203
I1
sS'trueenableAspenForCVP'
p204
I1
sS'icecapsthumbnailhttpi2cdnturnercomcnnnextdamassets151113133013yoroicetease1small11jpgdurationdescriptionlayouticonTypegalleryuri20151109sportannakournikovatennissportmarketingsponsorshipindexhtmlheadlineHow'
p205
I1
sS'thumbnailhttpi2cdnturnercomcnnnextdamassets151007175713nikifeijenruinsphotography3small11jpgdurationdescriptionAh'
p206
I1
sS'dataanalyticsfootercontactus'
p207
I1
sS'relight'
p208
I1
sS'0tymvar'
p209
I1
sS'znloaded'
p210
I1
sS'seen'
p211
I1
sS'tells'
p212
I1
sS'forced'
p213
I2
sS'NEEDLESu003cstrong'
p214
I1
sS'responsible'
p215
I1
sS'snow'
p216
I1
sS'They'
p217
I1
sS'cdhasmedia'
p218
I2
sS'srccdnclicktalenetwww04ptc342da402a44b4b59aba48fc2310e4478jsscript'
p219
I1
sS'wineditionadTargetscapTopics'
p220
I1
sS'dataanalyticsheaderregionsasiaAsiaalili'
p221
I1
sS'srcdataimagegifbase64R0lGODlhEAAJAJEAAAAAAPwAAACH5BAEAAAIALAAAAAAQAAkAAAIKlIpy0Po5yUFQA7div'
p222
I2
sS'classmfootersubtitles'
p223
I7
sS'mfooterbucketmoreli'
p224
I1
sS'dataanalyticsfootertvtvshowshreftvshowsTV'
p225
I1
sS'explosives'
p226
I2
sS'Bond'
p227
I2
sS'doc'
p228
I1
sS'professor'
p229
I1
sS'tech'
p230
I1
sS'href20151117europeparisattacksataglanceindexhtml'
p231
I1
sS'came'
p232
I1
sS'Doulsylayouturi20151117travelchinahangzhouoldvillamcdonaldsindexhtmlheadlineWorlds'
p233
I1
sS'saying'
p234
I1
sS'Agency'
p235
I1
sS'GoogleCNN'
p236
I1
sS'European'
p237
I1
sS'hrefarabiccnncom'
p238
I2
sS'classtroubleshootinglink'
p239
I2
sS'layout'
p240
I1
sS'ChangedmessageTextBy'
p241
I1
sS'theme'
p242
I1
sS'Finals'
p243
I1
sS'dataanalyticsheadernewsworldWorldalili'
p244
I1
sS'de'
p245
I1
sS'stop'
p246
I1
sS'amazon'
p247
I1
sS'classbreakingnewsbackgrounddiv'
p248
I1
sS'R\xc3\xa9publique'
p249
I1
sS'classmlegallistitema'
p250
I10
sS'bad'
p251
I2
sS'Senegalese'
p252
I1
sS'ruins'
p253
I1
sS'lastchilda'
p254
I1
sS'CNNcom'
p255
I1
sS'dataanalyticsfootermoretoolsextrashreftoolsTools'
p256
I1
sS'jssearchtoggle'
p257
I1
sS'1960s'
p258
I1
sS'analytics'
p259
I1
sS'Anderson'
p260
I2
sS'Foster'
p261
I1
sS'01'
p262
I4
sS'dataanalyticsfootermorecnnleadershiphrefspecialsmorecnnleadershipCNN'
p263
I1
sS'away'
p264
I1
sS'classadadbnrbtf04'
p265
I1
sS'Charlie'
p266
I3
sS'targetblankParis'
p267
I1
sS'hrefhttpwwwhistorycomthisdayinhistoryottomanempiredeclaresaholywar'
p268
I1
sS'classmfooternav'
p269
I1
sS'we'
p270
I4
sS'cdvertical'
p271
I2
sS'buildingslayouturi20150903luxurygallery11000diamondswallacechanindexhtmlheadlineWorlds'
p272
I1
sS'dataanalyticsfooterfeaturestravelhrefspecialstravelTravelalili'
p273
I1
sS'boss'
p274
I2
sS'clues'
p275
I1
sS'news'
p276
I1
sS'hundreds'
p277
I2
sS'worldthumbnailhttpi2cdnturnercomcnnnextdamassets151116173628shockingadsteasebenettonsmall11jpegdurationdescriptionlayouturi20151108worldcnnphotossyrianchildrenrefugeessleepingindexhtmlheadlineChild'
p278
I1
sS'improve'
p279
I1
sS'classmnavigationspecialsanchor'
p280
I9
sS'height234'
p281
I1
sS'dataimghttpicdnturnercomcnneimg40logosfreedomprojectjpg'
p282
I1
sS'classmeganav'
p283
I1
sS'classlcontainerdivsection'
p284
I1
sS'against'
p285
I2
sS'jsnavigationdrawerdiv'
p286
I1
sS'foreditionpickerwwwfooterInternationallabellili'
p287
I1
sS'hrefchina'
p288
I1
sS'argue'
p289
I1
sS'srchttphostvideoapiembedhtmlvideovideoId'
p290
I1
sS'classcdheadlinetextstrongCONCRETE'
p291
I1
sS'2nd'
p292
I2
sS'tons'
p293
I1
sS'classhamburgerdivdivbutton'
p294
I1
sS'targeting'
p295
I1
sS'asks'
p296
I1
sS'datavideoidworld20151116parisattackswomanhangingfromwindowledgecooperdntaccnndiv'
p297
I1
sS'containera'
p298
I1
sS'three'
p299
I1
sS'been'
p300
I3
sS'dataanalyticslisthierarchicalxsarticlea'
p301
I4
sS'WAFlayouturi20151106healthjamesbondspectreaccentsindexhtmlheadlineWhats'
p302
I1
sS'bomberthumbnailhttpi2cdnturnercomcnnnextdamassets151116133943adeltermosmournersbeirutbombingssmall11jpgdurationdescriptionlayouturi20151117africariemannhypothesisunsolvedindexhtmlheadlineHas'
p303
I1
sS'hrefhelpHelpalili'
p304
I1
sS'stadium'
p305
I5
sS'dozens'
p306
I1
sS'website'
p307
I1
sS'dataanalyticsfooternewstechhreftechTechnologyalili'
p308
I1
sS'life'
p309
I2
sS'c1451080CNNCNNXStreamUrl'
p310
I1
sS'drugs'
p311
I2
sS'catch'
p312
I2
sS'jsusermsgclosedivdivdiv'
p313
I1
sS'trueenableUserMessage'
p314
I1
sS'classcdheadlinetextDad'
p315
I1
sS'Intl'
p316
I1
sS'air'
p317
I1
sS'aim'
p318
I1
sS'typeof'
p319
I1
sS'dataanalyticsheadervideoVideoadiv'
p320
I1
sS'Arabicimg'
p321
I1
sS'have'
p322
I1
sS'altCNN'
p323
I8
sS'marriedlayouturi20151117asiajapanyakuzabossfounddeadindexhtmlheadlineYakuza'
p324
I1
sS'srchttpapostreleasecomserveloadjsasynctruescript'
p325
I1
sS'memorial'
p326
I1
sS'dataanalyticsfooterregionsamericashrefamericasAmericasaliolliolol'
p327
I1
sS'make'
p328
I3
sS'several'
p329
I1
sS'documentbodyclassName'
p330
I1
sS'hrefhttpcommercialcnncomAdvertise'
p331
I1
sS'dataanalyticsISIS20attacklisthierarchicalxsvideovideodiv'
p332
I3
sS'mobileSSID'
p333
I1
sS'ireport'
p334
I1
sS'photographers'
p335
I1
sS'classmcopyrightlinks'
p336
I1
sS'hrefireportcnncom'
p337
I1
sS'Marsthumbnailhttpi2cdnturnercomcnnnextdamassets150828091044marsiguanasmall11jpgdurationdescriptionlayouturi20151027middleeastinsidesyriafrontlineagainstisisindexhtmlheadlineMen'
p338
I1
sS'blamed'
p339
I1
sS'failing'
p340
I1
sS'smokes'
p341
I1
sS'suffering'
p342
I1
sS'ocean'
p343
I1
sS'contact'
p344
I2
sS'Batman'
p345
I2
sS'dataanalyticsheadermorecnnprofilesazCNN'
p346
I1
sS'1million'
p347
I1
sS'opinions'
p348
I1
sS'rethinkthumbnailhttpi2cdnturnercomcnnnextdamassets15111421240402parispeacesmall11jpgdurationdescriptionThe'
p349
I1
sS'just'
p350
I1
sS'datavrcontentbox20151117politicsisisputinobamaindexhtml'
p351
I1
sS'photo'
p352
I1
sS'Worldwidealiuldivlili'
p353
I1
sS'anthemspanspan'
p354
I1
sS'labelsmallminWidth0labellargeminWidth768'
p355
I1
sS'photographer'
p356
I2
sS'had'
p357
I2
sS'beloved'
p358
I1
sS'News'
p359
I4
sS'has'
p360
I9
sS'dataanalyticseditionpickerlogoadiv'
p361
I1
sS'Building'
p362
I1
sS'James'
p363
I1
sS'survival'
p364
I2
sS'dataimghttpicdnturnercomcnneimg40logoscnnarabicpng'
p365
I1
sS'classmfooterlink'
p366
I29
sS'jadeite'
p367
I2
sS'depicts'
p368
I2
sS'Projectaliuldivdiv'
p369
I1
sS'mfootersubtitlesopinionsli'
p370
I1
sS'dataanalyticslisthierarchicalxshyperlinkdiv'
p371
I1
sS'melting'
p372
I1
sS'Bomb'
p373
I1
sS'Trump'
p374
I1
sS'layouticonTypegalleryuri20150828techmarsphotosalienlifeindexhtmlheadlinePhotos'
p375
I1
sS'titleTurner'
p376
I1
sS'night'
p377
I2
sS'dataanalyticsheadervideomustwatchvideosMust'
p378
I1
sS'security'
p379
I3
sS'Swedish'
p380
I1
sS'right'
p381
I1
sS'people'
p382
I4
sS'System'
p383
I2
sS'dead'
p384
I1
sS'alteredlayouturi20151117opinionscontrolledmedicinesaccessgcdpindexhtmlheadlineWar'
p385
I1
sS'UTCheightsmall140medium120large130idtosheaderTextOur'
p386
I1
sS'valueeditionlabel'
p387
I2
sS'escape'
p388
I1
sS'targetblankto'
p389
I1
sS'dataanalyticsfooteradvertisewithus'
p390
I1
sS'datavideoidtv20151117fatherexplainsparisterrorattackstoyoungsonorigcnndiv'
p391
I1
sS'Facebook'
p392
I3
sS'cnn'
p393
I1
sS'HDIArena'
p394
I2
sS'He'
p395
I1
sS'core'
p396
I2
sS'who'
p397
I2
sS'classimgpreloaderdivnoscriptimg'
p398
I2
sS'EnglandFrance'
p399
I1
sS'hung'
p400
I2
sS'dataanalyticsheadermoreweatherWeatheralili'
p401
I1
sS'Place'
p402
I1
sS'McDonalds'
p403
I1
sS'Think'
p404
I3
sS'classcopyrightcopy'
p405
I1
sS'srchttpi2cdnturnercomcnnnextdamassets15111715584804germanystadiumevacrestrictedlarge169jpgnoscriptadivdiv'
p406
I1
sS'attacks'
p407
I9
sS'dollars'
p408
I1
sS'urlcdnoptimizelycomjs128727546jsCNNOutbrainVideoKPISrc'
p409
I1
sS'magazine'
p410
I1
sS'mfootersubtitlesnewsli'
p411
I1
sS'efforts'
p412
I1
sS'Hong'
p413
I2
sS'puzzle'
p414
I1
sS'son'
p415
I4
sS'down'
p416
I1
sS'Few'
p417
I1
sS'classcdcontenth3'
p418
I15
sS'hrefamericas'
p419
I1
sS'frightened'
p420
I1
sS'trueenableRefreshTimers'
p421
I1
sS'ISIS'
p422
I8
sS'support'
p423
I2
sS'transform'
p424
I1
sS'gallery'
p425
I2
sS'gig'
p426
I1
sS'GERMANY'
p427
I4
sS'dataanalyticsfooternewsNewsaol'
p428
I1
sS'resulted'
p429
I1
sS'znempty'
p430
I7
sS'war'
p431
I2
sS'head'
p432
I1
sS'medium'
p433
I20
sS'classcdheadlinetextWho'
p434
I1
sS'accentthumbnailhttpi2cdnturnercomcnnnextdamassets151022104016spectrefilmstillsmall11jpgdurationdescriptionThe'
p435
I1
sS'hrefspecialsphotos'
p436
I2
sS'syndicate'
p437
I1
sS'classznidx4'
p438
I1
sS'classznidx5'
p439
I1
sS'classznidx6'
p440
I1
sS'classznidx7'
p441
I1
sS'true'
p442
I2
sS'classznidx1'
p443
I1
sS'221'
p444
I2
sS'classznidx3'
p445
I1
sS'votersthumbnailhttpi2cdnturnercomcnnnextdamassets151114144356donaldtrumpnovember132015small11jpgdurationdescriptionlayouturi20151116healthtalkingtokidstragiceventsadviceparentsindexhtmlheadlineHow'
p446
I1
sS'itemconfirm'
p447
I2
sS'yakuza'
p448
I1
sS'cnnenespaol'
p449
I1
sS'href20151117politicsisisputinobamaindexhtml'
p450
I1
sS'propaganda'
p451
I1
sS'passenger'
p452
I1
sS'solvedthumbnailhttpi2cdnturnercomcnnnextdamassets151117130958einsteinequationsmall11jpgdurationdescriptionA'
p453
I1
sS'datavrzonehometopcol1article'
p454
I1
sS'strongPregnant'
p455
I1
sS'fashioned'
p456
I1
sS'datavrcontentbox20151117opinionsisisnomilitaryanswerpatonwalshindexhtml'
p457
I1
sS'hrefhttpwwwcnncominteractive201511worldparisvictims'
p458
I1
sS'clings'
p459
I1
sS'hrefvideos'
p460
I2
sS'wineditionadTargets'
p461
I1
sS'layouturi20151113techpioneerswomenscientistsindexhtmlheadlineWomen'
p462
I1
sS'dataimgbwhttpicdnturnercomcnneimg40logosfreedomprojectbwjpg'
p463
I1
sS'classpgbackgroundimagewrapperdivdiv'
p464
I1
sS'norail'
p465
I1
sS'update'
p466
I1
sS'worriedthumbnailhttpi2cdnturnercomcnnnextdamassets150810185852perseidmeteorshowerorigmg00003606small11jpgdurationdescriptionAccording'
p467
I1
sS'journey'
p468
I3
sS'datavrzonehometopcol2h2'
p469
I1
sS'dataanalyticsISIS20attacklisthierarchicalxsvideovideoa'
p470
I3
sS'Metrojet'
p471
I1
sS'classcdheadlinetextNew'
p472
I1
sS'longer'
p473
I2
sS'entitlementSingletons'
p474
I1
sS'ONstrongspanspan'
p475
I1
sS'dataanalyticsfooternewsmoneyhrefmoneycnncomINTERNATIONALMoneyaliolliolol'
p476
I1
sS'subscription'
p477
I2
sS'layouturi20151117healthcharliesheenhealthindexhtmlheadlineSheen'
p478
I1
sS'dataanalyticsISIS20attacklisthierarchicalxsISIS'
p479
I1
sS'gown'
p480
I1
sS'dataanalyticslisthierarchicalxsvideovideodiv'
p481
I1
sS'global'
p482
I1
sS'itemoption'
p483
I4
sS'altHANOVER'
p484
I2
sS'suicide'
p485
I1
sS'father'
p486
I1
sS'0'
p487
I28
sS'pushargumentsscript'
p488
I1
sS'layouticonTypevideouri20151117opinionsbergenexplosivesparisattacksindexhtmlheadlineWhy'
p489
I1
sS'terror'
p490
I4
sS'cdstatusexclusiveANALYSISdivh3'
p491
I1
sS'halllayouturivideostv20151117fatherexplainsparisterrorattackstoyoungsonorigcnnheadlineDad'
p492
I1
sS'classadadoopskin01'
p493
I1
sS'srchttpeditionicdncnncoma12173jscnnvideoapiminjsversionlatestclientexpansion'
p494
I1
sS'cool'
p495
I1
sS'znhastwocontainers'
p496
I1
sS'dataimghttpicdnturnercomcnneimg40logoscnnespanolpng'
p497
I1
sS'cncontainerFF116514E199B53BEE43F9A037BAE8D4'
p498
I1
sS'visualRevenueResponsed'
p499
I1
sS'die'
p500
I1
sS'srcdataimagegifbase64R0lGODlhEAAJAJEAAAAAAPwAAACH5BAEAAAIALAAAAAAQAAkAAAIKlIpy0Po5yUFQA7'
p501
I9
sS'solved'
p502
I1
sS'hrefasia'
p503
I1
sS'classdropdowndiv'
p504
I2
sS'div'
p505
I3
sS'Tai'
p506
I2
sS'fwNetworkId'
p507
I1
sS'308'
p508
I2
sS'says'
p509
I3
sS'villa'
p510
I1
sS'porn'
p511
I4
sS'tou003cbrall'
p512
I2
sS'1800CNNOptimizelyConfig'
p513
I1
sS'classjseditionpreferenceschoice'
p514
I4
sS'classcdheadlinetextThe'
p515
I1
sS'appear'
p516
I2
sS'McCafelayouturi20151116politicstrumpsecurityparisattacksindexhtmlheadlineTrump'
p517
I1
sS'hreffeedbackContact'
p518
I1
sS'dataanalyticsfootervideoshowshrefspecialsinternationalvideolandingfeatureshowvideosShowsalili'
p519
I1
sS'current'
p520
I1
sS'suspect'
p521
I4
sS'goes'
p522
I1
sS'international'
p523
I2
sS'TwitterCNN'
p524
I1
sS'dataanalyticsfootertermsofuse'
p525
I1
sS'groups'
p526
I1
sS'datasrcxsmallhttpi2cdnturnercomcnnnextdamassets151116131822isisthreatdcmediumplus169jpg'
p527
I1
sS'hrefprivacyPrivacy'
p528
I2
sS'dataimgbwhttpicdnturnercomcnneimg40logoscnnarabicbwpng'
p529
I1
sS'dataanalyticsheaderweatherdivdiv'
p530
I1
sS'ideditionpickeredtionheader'
p531
I1
sS'intlhomepage'
p532
I1
sS'classjscmcsfootercard'
p533
I1
sS'titleImpact'
p534
I1
sS'STADIUMnoscriptadivdiv'
p535
I1
sS'Evacuated'
p536
I2
sS'layouticonTypegalleryuri20151110travelgallerynewthemeparksof2015indexhtmlheadlineThe'
p537
I1
sS'visit'
p538
I1
sS'sports'
p539
I1
sS'datavrcontentboxvideosworld20151117francerussiaunitedstatesstepupattacksagainstisisbrettmcgurkintvamanpourcnn'
p540
I1
sS'dataimgbwhttpicdnturnercomcnneimg40logoscnnmexicobwpng'
p541
I1
sS'household'
p542
I1
sS'hrefafrica'
p543
I1
sS'datavrzonezone00'
p544
I1
sS'visual'
p545
I2
sS'downing'
p546
I1
sS'everywhere'
p547
I1
sS'u003cstrongStates'
p548
I1
sS'layouticonTypegalleryuri20151116opinionsolikerrussiausrelationsisisindexhtmlheadlineParis'
p549
I1
sS'sectionindexhtmlenablePictureFillfalseenableZonesScrollToLoadfalselazyLoadtrueloadAllZonesLazyfalsezonesminWidth0indexhtmlintlhomepage1zone1indexhtmlintlhomepage1zone2intlindex3htmlintlhomepagemagellanzone1intlindex3htmlintlhomepagemagellanzone2intlindex3htmlintlhomepagemagellanzone3intlindex3htmlintlhomepagemagellanzone4indexhtmlintlhomepage3zone4640indexhtmlintlhomepage1zone1indexhtmlintlhomepage1zone2indexhtmlintlhomepage1zone3indexhtmlintlhomepage1zone4indexhtmlintlhomepage2zone1indexhtmlintlhomepage3zone1indexhtmlintlhomepage3zone2indexhtmlintlhomepage3zone3indexhtmlintlhomepage3zone4800indexhtmlintlhomepage1zone1indexhtmlintlhomepage1zone2indexhtmlintlhomepage1zone3indexhtmlintlhomepage1zone4indexhtmlintlhomepage2zone1indexhtmlintlhomepage3zone1indexhtmlintlhomepage3zone2indexhtmlintlhomepage3zone3indexhtmlintlhomepage3zone4index2htmlenablePictureFilltrueenableZonesScrollToLoadfalselazyLoadtruezonesminWidth0index2htmlintlhomepage1zone1index2htmlintlhomepage1zone2index2htmlintlhomepage1zone3index2htmlintlhomepage1zone4index2htmlintlhomepage2zone1index2htmlintlhomepage3zone1index2htmlintlhomepage3zone2index2htmlintlhomepage3zone3index2htmlintlhomepage3zone4640index2htmlintlhomepage1zone1index2htmlintlhomepage1zone2index2htmlintlhomepage1zone3index2htmlintlhomepage1zone4index2htmlintlhomepage2zone1index2htmlintlhomepage3zone1index2htmlintlhomepage3zone2index2htmlintlhomepage3zone3index2htmlintlhomepage3zone4800index2htmlintlhomepage1zone1index2htmlintlhomepage1zone2index2htmlintlhomepage1zone3index2htmlintlhomepage1zone4index2htmlintlhomepage2zone1index2htmlintlhomepage3zone1index2htmlintlhomepage3zone2index2htmlintlhomepage3zone3index2htmlintlhomepage3zone4CNNSiblingNavigation'
p550
I1
sS'behalf'
p551
I1
sS'dataanalyticsheaderfeaturestravelTravelalili'
p552
I1
sS'organizations'
p553
I1
sS'Leadershipaliuldiv'
p554
I1
sS'So'
p555
I1
sS'c125920'
p556
I1
sS'truessrc'
p557
I1
sS'nametext'
p558
I1
sS'Arabicalili'
p559
I1
sS'growing'
p560
I1
sS'datasrcmini1x1httpi2cdnturnercomcnnnextdamassets15111715584804germanystadiumevacrestrictedsmall11jpg'
p561
I1
sS'typetext'
p562
I2
sS'streak'
p563
I1
sS'heart'
p564
I1
sS'hrefmore'
p565
I2
sS'Hebdos'
p566
I2
sS'pgintlhomepage'
p567
I1
sS'drawer'
p568
I1
sS'mfootersubtitlesvideoli'
p569
I1
sS'Leadershipalili'
p570
I1
sS'Caliphate'
p571
I2
sS'Damon'
p572
I1
sS'dcreateElementax'
p573
I1
sS'Putin'
p574
I2
sS'Terms'
p575
I1
sS'hrefhttpeditioncnncom20151110autosfamousmoviecarsbatmanindexhtml'
p576
I1
sS'1'
p577
I2
sS'idadoopskin01'
p578
I1
sS'Why'
p579
I2
sS'designer'
p580
I2
sS'datasrclargehttpi2cdnturnercomcnnnextdamassets15111715584804germanystadiumevacrestrictedsuper169jpg'
p581
I1
sS'Espa\xc3\xb1olCNN'
p582
I1
sS'sectionentertainmentenableFooterfalseenableIncludetruehealthenableFooterfalseenableIncludetruelivingenableFooterfalseenableIncludetruepoliticsenableFooterfalseenableIncludetruetechenableFooterfalseenableIncludetruetravelenableFooterfalseenableIncludetrueusenableFooterfalseenableIncludetrueworldenableFooterfalseenableIncludetrueCNNMarketsConfig'
p583
I1
sS'cdmediaimage'
p584
I16
sS'seediness'
p585
I1
sS'downinglayouticonTypevideouri20151117politicsisisputinobamaindexhtmlheadlineISIS'
p586
I1
sS'goodold'
p587
I1
sS'candles'
p588
I2
sS'yielding'
p589
I1
sS'st'
p590
I1
sS'tale'
p591
I2
sS'so'
p592
I2
sS'mfootersubtitlesmoreli'
p593
I1
sS'datasrcmini1x1httpi2cdnturnercomcnnnextdamassets151116131822isisthreatdcsmall11jpg'
p594
I1
sS'talk'
p595
I1
sS'Mississippi'
p596
I1
sS'ideditionpickerwwwfooter'
p597
I1
sS'dataanalyticsheaderphotosPhotosalili'
p598
I1
sS'Jan'
p599
I2
sS'ended'
p600
I2
sS'datacontainers2div'
p601
I1
sS'datazonelabelZone'
p602
I1
sS'Sheen'
p603
I2
sS'classcdcontentdiv'
p604
I1
sS'titleCNN'
p605
I8
sS'how'
p606
I3
sS'moreu003ca'
p607
I1
sS'window'
p608
I1
sS'policy'
p609
I1
sS'World'
p610
I8
sS'href20151117europegermanynetherlandssoccercanceledindexhtmlh2'
p611
I1
sS'happened'
p612
I1
sS'Cable'
p613
I1
sS'dataanalyticsfootermorecnnmobilehrefinteractivemobileCNN'
p614
I1
sS'safariwebServiceURLhttpsalertshubcnncomdistributionhubwebsitePushIDwebcomcnnredalertCNNadTimers'
p615
I1
sS'half'
p616
I1
sS'leopards'
p617
I1
sS'now'
p618
I2
sS'wont'
p619
I4
sS'kidthumbnailhttpi2cdnturnercomcnnnextdamassets151029175652stevenjiangfamilyphotosmall11jpgdurationdescriptionlayouturi20151106architecturewafworldarchitecturefestival2015indexhtmlheadlineAnd'
p620
I1
sS'mfooterbucketnewsli'
p621
I1
sS'shy'
p622
I1
sS'Kenya'
p623
I1
sS'classjstrustemodalCookie'
p624
I1
sS'DYAPIactions'
p625
I1
sS'en'
p626
I2
sS'dataimgbwhttpicdnturnercomcnneimg40logoscnnfacebookbwpng'
p627
I1
sS'WorldImpact'
p628
I1
sS'hrefspecialsstoriesworthwatchingvideo'
p629
I1
sS'targetblanktroubleshooting'
p630
I2
sS'amznkey3288'
p631
I1
sS'Worldimg'
p632
I1
sS'Rights'
p633
I1
sS'cars'
p634
I2
sS'million'
p635
I1
sS'classmfooterlistitema'
p636
I29
sS'CNNUtilsexistsCNNcontentModelanalyticscaptopics'
p637
I1
sS'classmfooterbucketgroupol'
p638
I1
sS'attackh2article'
p639
I1
sS'turn'
p640
I1
sS'dgetElementsByTagNamea0sasync'
p641
I1
sS'place'
p642
I2
sS'routes'
p643
I1
sS'adepic'
p644
I4
sS'dielayouturi20151115healthfacetransplantfirefighterindexhtmlheadlineMost'
p645
I1
sS'HIVpositivethumbnailhttpi2cdnturnercomcnnnextdamassets15111618361916charliesheenthroughtheyearssmall11jpgduration0126descriptionActor'
p646
I1
sS'cdhassiblings'
p647
I16
sS'hrefspecialstravel'
p648
I1
sS'one'
p649
I6
sS'Inca'
p650
I1
sS'minutethumbnailhttpi2cdnturnercomcnnnextdamassets151116191441pariscrimescenesmall11jpgduration0109descriptionA'
p651
I1
sS'dataanalyticsheadercnnprofilesazCNN'
p652
I1
sS'city'
p653
I4
sS'Videosalili'
p654
I2
sS'Monday'
p655
I1
sS'caught'
p656
I2
sS'2'
p657
I1
sS'tragic'
p658
I1
sS'terrifying'
p659
I1
sS'searchtoggle'
p660
I1
sS'white'
p661
I2
sS'dataanalyticsfooterregionsafricahrefafricaAfricaalili'
p662
I1
sS'structures'
p663
I1
sS'mfootersubtitlesfeaturesli'
p664
I1
sS'seduced'
p665
I1
sS'Patrick'
p666
I1
sS'foreditionpickerwwwheaderInternationallabellili'
p667
I1
sS'classcdheadlinetextOpinion'
p668
I1
sS'navigatoruserAgenttoLowerCaseif'
p669
I1
sS'classmnavigationquicklinks'
p670
I6
sS'13'
p671
I1
sS'17'
p672
I4
sS'dataanalyticsheadertvfacesofcnnworldwideFaces'
p673
I1
sS'future'
p674
I2
sS'were'
p675
I1
sS'dataanalyticsfooterfeaturesallfeatureshrefspecialsAll'
p676
I1
sS'mfootersubtitlesregionsli'
p677
I1
sS'browser'
p678
I2
sS'say'
p679
I2
sS'bathed'
p680
I1
sS'CNNcomvar'
p681
I1
sS'layouturivideosworld20151117francerussiaunitedstatesstepupattacksagainstisisbrettmcgurkintvamanpourcnnheadlineUS'
p682
I1
sS'Policyalili'
p683
I1
sS'datavideoidworld20151117francerussiaunitedstatesstepupattacksagainstisisbrettmcgurkintvamanpourcnndiv'
p684
I1
sS'enableForCarouselstrueenableForImagestruethreshold300CNNFeatures'
p685
I1
sS'ISISthumbnailhttpi2cdnturnercomcnnnextdamassets15111212445701trump1112small11jpgdurationdescriptionlayouturi20151113africakenyamostdangerousplacetobepregnantindexhtmlheadlineMost'
p686
I1
sS'uaindexOfipad'
p687
I1
sS'shocked'
p688
I1
sS'classmcopyrightoutercontainerdiv'
p689
I1
sS'take'
p690
I3
sS'adall'
p691
I2
sS'coincide'
p692
I1
sS'blunt'
p693
I2
sS'foreditionpickeredtionheaderUSlabellili'
p694
I1
sS'pain'
p695
I1
sS'datalocationfooter'
p696
I1
sS'classmlegalul'
p697
I1
sS'MexicoCNN'
p698
I1
sS'editioninternationaldiv'
p699
I1
sS'znidx0'
p700
I1
sS'hrefvideosworld20151117francerussiaunitedstatesstepupattacksagainstisisbrettmcgurkintvamanpourcnn'
p701
I1
sS'2015thumbnailhttpi2cdnturnercomcnnnextdamassets151112172906trudeaucabinetsmall11jpgdurationdescriptionlayouturi20151116opinionsclosingmigrationrouteswontstopterrorismindexhtmlheadlineMigrant'
p702
I1
sS'000000'
p703
I4
sS'That'
p704
I1
sS'sale'
p705
I1
sS'attackslayouticonTypevideourivideostv20151116paristerrorattackstictocmobileorigcnnheadlineParis'
p706
I1
sS'classmediaa'
p707
I2
sS'classsearchinputtextbutton'
p708
I1
sS'windowthumbnailhttpi2cdnturnercomcnnnextdamassets151116204555parisattackswomanhangingfromwindowledgecooperdntac00002405small11jpgduration0212descriptionCNNs'
p709
I1
sS'classcdheadlinetextWhy'
p710
I1
sS'hrefspecialsmorecnnleadership'
p711
I2
sS'mfooterbucketvideoli'
p712
I1
sS'dataimghttpicdnturnercomcnneimg40logoscnntwitterpng'
p713
I1
sS'title'
p714
I1
sS'Vietnamthumbnailhttpi2cdnturnercomcnnnextdamassets15110612371501obamakeystone1106small11jpgdurationdescriptionlayouturi20151113opinionsspacejunkwt1190fconversationindexhtmlheadlineSpace'
p715
I1
sS'going'
p716
I1
sS'classznidx2'
p717
I1
sS'expertslayouturi20151112traveldronestagramdronephotographyphotoartsocialindexhtmlheadlineDrone'
p718
I1
sS'Facebookimg'
p719
I1
sS'layouticonTypevideourivideosworld20151116parisattacksrelightingthecandlesorigsdgcnnheadlineRelighting'
p720
I1
sS'FacebookCNN'
p721
I1
sS'get'
p722
I2
sS'classbuckets'
p723
I1
sS'condemning'
p724
I1
sS'between'
p725
I2
sS'full16x9'
p726
I18
sS'mfooterbucketopinionsli'
p727
I1
sS'togetherthumbnailhttpi2cdnturnercomcnnnextdamassets151116094911obamaputinsmall11jpgdurationdescriptionRussia'
p728
I1
sS'hrefhttpcnnnewsourcecomCNN'
p729
I1
sS'absurdly'
p730
I2
sS'stupid'
p731
I1
sS'where'
p732
I3
sS'reveals'
p733
I1
sS'declared'
p734
I1
sS'pummeled'
p735
I1
sS'concert'
p736
I1
sS'strongStates'
p737
I1
sS'raged'
p738
I1
sS'datasrcsmallhttpi2cdnturnercomcnnnextdamassets151116131822isisthreatdclarge169jpg'
p739
I1
sS'vrq'
p740
I2
sS'relative'
p741
I2
sS'surgery'
p742
I1
sS'sport'
p743
I1
sS'classsignindivdiv'
p744
I1
sS'tackling'
p745
I1
sS'sites'
p746
I1
sS'forecast'
p747
I1
sS'outside'
p748
I2
sS'preferencesu003ca'
p749
I1
sS'ISISthumbnailhttpi2cdnturnercomcnnnextdamassets150318083603cnneepkgbrownpamelajihadijohnprofile00002425small11jpgdurationdescriptionlayouturi20151113opinionsodomdiversitystilllackingconferencesindexhtmlheadlineTrudeaus'
p750
I1
sS'diamonds'
p751
I4
sS'hreftravel'
p752
I1
sS'sectiondiv'
p753
I1
sS'ruptured'
p754
I1
sS'srccdnclicktalenetwww04phc342da402a44b4b59aba48fc2310e4478jsscript'
p755
I1
sS'notice'
p756
I3
sS'cdarticle'
p757
I11
sS'classcdheadlineiconspanah3divdivarticleuldivdivdivsectionsection'
p758
I1
sS'idie8headerTextInternet'
p759
I1
sS'nationthumbnailhttpi2cdnturnercomcnnnextdamassets151022033803huangtanghongcloseupsmall11jpgdurationdescriptionLiu'
p760
I1
sS'selfproclaimed'
p761
I1
sS'companionAdStates'
p762
I1
sS'cities'
p763
I1
sS'come'
p764
I1
sS'TODAY'
p765
I1
sS'Kournikova'
p766
I1
sS'780'
p767
I18
sS'781'
p768
I2
sS'many'
p769
I1
sS'region'
p770
I1
sS'cluethumbnailhttpi2cdnturnercomcnnnextdamassets151117030606parissecurity2small11jpgdurationdescriptionPeter'
p771
I1
sS'tlight'
p772
I1
sS'cluespanspan'
p773
I1
sS'alQaeda'
p774
I1
sS'classbreakingnewstitlespan'
p775
I1
sS'boat'
p776
I1
sS'math'
p777
I1
sS'unusual'
p778
I1
sS'dataanalyticsfooterturnerbroadcastingsysteminc'
p779
I1
sS'idbreakingnews'
p780
I1
sS'Mobilealili'
p781
I3
sS'jstrusteicon'
p782
I1
sS'ringleader'
p783
I2
sS'Mehmet'
p784
I2
sS'formed'
p785
I2
sS'dangerous'
p786
I1
sS'photos'
p787
I3
sS'wake'
p788
I1
sS'Haram'
p789
I1
sS'Featuresaliolliolol'
p790
I1
sS'former'
p791
I1
sS'datavaluehttpeditioncnncominput'
p792
I2
sS'targetblankpoverty'
p793
I1
sS'dataanalyticsheadervideocnnenespaolCNN'
p794
I1
sS'dataanalyticsheadermoreMore\xe2\x80\xa6adiv'
p795
I1
sS'1100'
p796
I5
sS'coolest'
p797
I1
sS'classweather'
p798
I1
sS'classcdheadline'
p799
I16
sS'couples'
p800
I1
sS'good'
p801
I1
sS'classcdheadlinetextstrongSURRENDER'
p802
I1
sS'perhaps'
p803
I1
sS'media'
p804
I1
sS'dataanalyticsheadernewstechTechnologyalili'
p805
I1
sS'followers'
p806
I1
sS'hostsearchwgooglew23ww'
p807
I1
sS'stepped'
p808
I1
sS'CNNcontentModelanalyticscaptopicssplitswindow'
p809
I1
sS'events'
p810
I1
sS'classcurrentInternational'
p811
I2
sS'84yearold'
p812
I1
sS'I'
p813
I2
sS'IN'
p814
I2
sS'classusermsgclose'
p815
I1
sS'undefined'
p816
I1
sS'magical'
p817
I1
sS'idadoopfloat01'
p818
I1
sS'loosethumbnailhttpi2cdnturnercomcnnnextdamassets15111712581301parismanhuntrentalcar1117small11jpgdurationdescriptionlayouturi20151117worldparisattacksindexhtmlheadlineu003cstrongSURRENDER'
p819
I1
sS'desktopSSID'
p820
I1
sS'without'
p821
I1
sS'relief'
p822
I1
sS'Max'
p823
I1
sS'classusermsgheaderdiv'
p824
I1
sS'classeditionpickera'
p825
I1
sS'overnightlayouticonTypevideouri20151112hotelsgallerymalaysiarainforestresortsindexhtmlheadline12'
p826
I1
sS'United'
p827
I1
sS'Service'
p828
I5
sS'being'
p829
I1
sS'captures'
p830
I1
sS'lavish'
p831
I2
sS'kill'
p832
I1
sS'layouturi20151117entertainmentpaulwalkerdeathlawsuitindexhtmlheadlinePaul'
p833
I1
sS'preferencelili'
p834
I2
sS'death'
p835
I2
sS'dataanalyticsheaderopinionsireportiReportaliuldivlili'
p836
I1
sS'datasrclargehttpi2cdnturnercomcnnnextdamassets151116131822isisthreatdcsuper169jpg'
p837
I1
sS'4'
p838
I2
sS'SheikhulIslam'
p839
I1
sS'extensive'
p840
I1
sS'AgencyGetty'
p841
I2
sS'classzn'
p842
I1
sS'instanceof'
p843
I1
sS'facesofcnnworldwide'
p844
I1
sS'around'
p845
I1
sS'spectacular'
p846
I1
sS'CNNgo'
p847
I2
sS'datavrcontentbox20151117opinionsbergenexplosivesparisattacksindexhtml'
p848
I1
sS'nametextbutton'
p849
I1
sS'Project'
p850
I3
sS'Tour'
p851
I1
sS'using'
p852
I2
sS'fortune'
p853
I1
sS'heightened'
p854
I1
sS'serves'
p855
I1
sS'London'
p856
I1
sS'hrefmoneycnncomINTERNATIONAL'
p857
I1
sS'href20151116worldparisattackssyrianrefugeesbacklashindexhtml'
p858
I1
sS'datavrcontentbox20151117worldcharliehebdonewcoverindexhtml'
p859
I1
sS'Entertainment'
p860
I1
sS'classlist'
p861
I2
sS'thumbnailhttpi2cdnturnercomcnnnextdamassets15111613231101abdelhamidabaaoudsmall11jpgdurationdescriptionlayouturi20151117europebataclanmemoriesparisattacksindexhtmlheadlineMusic'
p862
I1
sS'datavrcontentbox20151117europegermanynetherlandssoccercanceledindexhtmla'
p863
I1
sS'listli'
p864
I1
sS'allfeatures'
p865
I1
sS'classsection'
p866
I38
sS'unearthed'
p867
I2
sS'hrefcookieTell'
p868
I1
sS'breakingNewsttl120000urlhttpdatacnncomjsonpbreakingnewsinternationaljsonCNNGoFreePreviewConfig'
p869
I1
sS'provider'
p870
I2
sS'mustwatchvideos'
p871
I1
sS'classcdheadlinetextstrongSURVIVOR'
p872
I1
sS'classitema'
p873
I6
sS'communicate'
p874
I1
sS'hrefwwwcnncomhelpcnngotroubleshootinghtml'
p875
I2
sS'inherent'
p876
I1
sS'origins'
p877
I2
sS'fwProfile'
p878
I1
sS'targetblankpornpornu003ca'
p879
I1
sS'vrqIsOnHP'
p880
I1
sS'favorite'
p881
I3
sS'youve'
p882
I1
sS'Images'
p883
I2
sS'Magnus'
p884
I1
sS'apiloaderBaseURLFULLPATHhttpwwwcnncomelementwidgetvideovideoapiapiloaderBaseURLelementwidgetvideovideoapiapiloaderBaseURLLocalhttplocalhostcnncom3000buildapiversionlatestcollectionplayNextVideoTimeout1500goFreePreviewadobeEnvironmentprodaspenContextprev10endSlatectaTextSign'
p885
I1
sS'href20151114opinionsparisattacksisisstrategyindexhtml'
p886
I1
sS'docreferrerreplacehttpswi'
p887
I1
sS'your'
p888
I11
sS'hrefregions'
p889
I2
sS'her'
p890
I2
sS'hes'
p891
I1
sS'alleged'
p892
I2
sS'start'
p893
I1
sS'vrqIsOnHPvrqpushtrack'
p894
I1
sS'jseditionpreferencesconfirmConfirmliuldivdivdiv'
p895
I2
sS'Obama'
p896
I2
sS'thumbnailhttpi2cdnturnercomcnnnextdamassets15011414071601charliehebdocover0114small11jpgdurationdescriptionThe'
p897
I1
sS'Walker'
p898
I1
sS'hrefhttpwwwturnercom'
p899
I1
sS'abused'
p900
I1
sS'adallskindiv'
p901
I1
sS'romantic'
p902
I1
sS'jseditionpickerlist'
p903
I2
sS'classcdheadlinetextstrongCAR'
p904
I1
sS'classmediaimage'
p905
I4
sS'thumbnailhttpi2cdnturnercomcnnnextdamassets150904103055wallacechantease2small11jpgdurationdescriptionThe'
p906
I1
sS'0tymchkPlstymchkPlsdocumentwindow'
p907
I1
sS'Usealili'
p908
I1
sS'trips'
p909
I1
sS'Special'
p910
I1
sS'aa'
p911
I8
sS'Space'
p912
I1
sS'exhausted'
p913
I1
sS'threshold1200disableHoverThreshold1CNNBylineImages'
p914
I1
sS'describe'
p915
I1
sS'am'
p916
I1
sS'dataanalyticsfootervideoVideoaol'
p917
I1
sS'an'
p918
I5
sS'functionetiftymvoid'
p919
I1
sS'Homepage'
p920
I1
sS'lfootercontentdivdivfooter'
p921
I1
sS'lfooterdiv'
p922
I1
sS'classusermsgheadertextdivdiv'
p923
I1
sS'anthemthumbnailhttpi2cdnturnercomcnnnextdamassets151117184905wembleyfanssmall11jpgduration0219descriptionAmid'
p924
I1
sS'classusermsgbodydiv'
p925
I1
sS'5'
p926
I1
sS'idjsweatherfooterdivdivdiv'
p927
I1
sS'Linkslili'
p928
I1
sS'registryURL'
p929
I1
sS'dataanalyticsheaderregionschinaChinaalili'
p930
I1
sS'Newsourcealiuldivdivdivdivdivfooterscript'
p931
I1
sS'thumbnailhttpi2cdnturnercomcnnnextdamassets151116161349facetransplant01small11jpegduration0149description41yearold'
p932
I1
sS'obsessed'
p933
I1
sS'rollthumbnailhttpi2cdnturnercomcnnnextdamassets151105103638isisflagtanksmall11jpgdurationdescriptionlayouturi20151029asiachinaonechildpolicypersonaltakeindexhtmlheadlineLife'
p934
I1
sS'Eastalili'
p935
I2
sS'dies'
p936
I1
sS'important'
p937
I1
sS'Serb'
p938
I1
sS'48804'
p939
I1
sS'CNN'
p940
I24
sS'hrefspecialsprofiles'
p941
I2
sS'connotations'
p942
I1
sS'altImpact'
p943
I1
sS'whythumbnailhttpi2cdnturnercomcnnnextdamassets140115184759painrelievers05small11jpgdurationdescriptionGovernments'
p944
I1
sS'remote'
p945
I1
sS'idcnnAPIJSscript'
p946
I1
sS'trueenableSafariPushAlerts'
p947
I1
sS'Year'
p948
I1
sS'original'
p949
I1
sS'dataanalyticsheadertvscheduleSchedulealili'
p950
I1
sS'cdidx1'
p951
I2
sS'cdidx2'
p952
I2
sS'cdidx3'
p953
I2
sS'cdidx4'
p954
I2
sS'cdidx5'
p955
I2
sS'cdidx6'
p956
I1
sS'cdidx7'
p957
I1
sS'cdidx8'
p958
I1
sS'cdidx9'
p959
I1
sS'dataanalyticsheadernewsNewsadiv'
p960
I1
sS'layouturi20151116middleeastlebanonadeltermosbeirutheroindexhtmlheadlineHero'
p961
I1
sS'dataanalyticsfootercnnnewsource'
p962
I1
sS'altSalahuddine'
p963
I2
sS'THANKS'
p964
I2
sS'talks'
p965
I3
sS'religious'
p966
I1
sS'srchttpeditionicdncnncoma12173jscnnfooterlibminjsscript'
p967
I1
sS'tv'
p968
I1
sS'siblings'
p969
I1
sS'case'
p970
I1
sS'woman'
p971
I3
sS'very'
p972
I1
sS'actionsearch'
p973
I2
sS'Stringvoid'
p974
I1
sS'fall'
p975
I1
sS'reportedlayouturi20151117tennisworldtourfinalsfedererdjokovicberdychnishikoritennisindexhtmlheadlineFederer'
p976
I1
sS'classzncontainersdiv'
p977
I1
sS'trueenableOutbrainVideoKPI'
p978
I1
sS'refugeesspanspan'
p979
I1
sS'list'
p980
I1
sS'joined'
p981
I1
sS'large'
p982
I20
sS'ISISthumbnailhttpi2cdnturnercomcnnnextdamassets150226160941leaddntsciuttojihadijohnunmasked00000000small11jpgdurationdescriptionlayouturivideosworld20151116parisattackswomanhangingfromwindowledgecooperdntaccnnheadlinePregnant'
p983
I1
sS'adalldiv'
p984
I1
sS'small'
p985
I18
sS'Twitteralili'
p986
I1
sS'Impact'
p987
I1
sS'cookies'
p988
I2
sS'uaindexOfandroid'
p989
I1
sS'editioncnncommainhomepage'
p990
I1
sS'Should'
p991
I1
sS'Monteiro'
p992
I1
sS'NOVEMBER'
p993
I2
sS'hrefhttpwwwcnncom20140808worldisisfastfactsindexhtmlISISsu003ca'
p994
I1
sS'what'
p995
I2
sS'Korea'
p996
I1
sS'storyCNNToggleOutbrain'
p997
I1
sS'section'
p998
I1
sS'anniversary'
p999
I1
sS'idadbnrbtf04'
p1000
I1
sS'version'
p1001
I1
sS'scientists'
p1002
I1
sS'dataanalyticsheaderregionsRegionsadiv'
p1003
I1
sS'public'
p1004
I1
sS'classlfootercontentdiv'
p1005
I1
sS'classutilities'
p1006
I1
sS'inyourface'
p1007
I1
sS'href20151117opinionsbergenexplosivesparisattacksindexhtml'
p1008
I1
sS'dataanalyticsheadernewsentertainmentEntertainmentalili'
p1009
I1
sS'href20151117opinionsisisnomilitaryanswerpatonwalshindexhtmlimg'
p1010
I1
sS'classcolumnul'
p1011
I2
sS'winedition'
p1012
I1
sS'backlash'
p1013
I1
sS'dataimgbwhttpicdnturnercomcnneimg40logoscnnespanolbwpng'
p1014
I1
sS'dataanalyticsheadermorephotosPhotosalili'
p1015
I1
sS'placeholderSearch'
p1016
I2
sS'sitespanspan'
p1017
I1
sS'internationaltoUpperCasehost'
p1018
I1
sS'Searchspanbuttondivdiv'
p1019
I1
sS'experience'
p1020
I1
sS'uaindexOfiphone'
p1021
I1
sS'datavrcontentboxvideosworld20151116parisattackswomanhangingfromwindowledgecooperdntaccnn'
p1022
I1
sS'dataanalyticsheaderImpact'
p1023
I2
sS'cooperationthumbnailhttpi2cdnturnercomcnnnextdamassets150929145850mexicoobamaputin2012small11jpgdurationdescriptionlayouturi20151113opinionsbergenisisjihadijohnindexhtmlheadlineEnd'
p1024
I1
sS'dataanalyticsfooterregionseuropehrefeuropeEuropealili'
p1025
I1
sS'africa'
p1026
I1
sS'href'
p1027
I5
sS'interval20isVisibletruepageTypesectionresetDelay3resetThreshold17sectionNameintlhomepageBreaking'
p1028
I1
sS'falsevrqpushid'
p1029
I1
sS'Djokovics'
p1030
I2
sS'Europe'
p1031
I2
sS'spasthumbnailhttpi2cdnturnercomcnnnextdamassets151013174525snakespasmall11jpgdurationdescriptionlayouturi20151116fashionadvertsthatchangedtheworldindexhtmlheadlineLook'
p1032
I1
sS'Explorer'
p1033
I1
sS'pageTopheadlineauthorshowNameisArticleVideoCollectionfalsepublishDate20151118T002414ZpageBrandingdefaultbrandingcontentpagedefaultbrandingcontentzonedefaultbrandingcontentcontainerdefaultdefiningmomentsbrandingcontentcard'
p1034
I1
sS'hereu003ca'
p1035
I1
sS'datavrcontentbox20151117europeparisattacksataglanceindexhtml'
p1036
I1
sS'preloaded'
p1037
I1
sS'dataanalyticsfooterlicensefootage'
p1038
I1
sS'more'
p1039
I3
sS'diamond'
p1040
I1
sS'knows'
p1041
I1
sS'dataanalyticsheaderregionseuropeEuropealili'
p1042
I1
sS'Lizhu'
p1043
I1
sS'Americas'
p1044
I1
sS'srccdnoptimizelycomjs128727546jsheadbody'
p1045
I1
sS'known'
p1046
I1
sS'document'
p1047
I1
sS'laborthumbnailhttpi2cdnturnercomcnnnextdamassets131218125900kimjongunwavesmall11jpgdurationdescriptionlayouturi20151008middleeastisisrapetheologysoldiersrapewomentomakethemmuslimindexhtmlheadlineISIS'
p1048
I1
sS'windoweditionadTargets'
p1049
I1
sS'srchttpeditionicdncnncoma12173jsvendorusabillaminjsscript'
p1050
I1
sS'Your'
p1051
I6
sS'dataimgbwhttpicdnturnercomcnneimg40logosheroesbwpng'
p1052
I1
sS'hrefeurope'
p1053
I1
sS'share'
p1054
I2
sS'width416'
p1055
I1
sS'ideologue'
p1056
I1
sS'titillation'
p1057
I1
sS'Worldalili'
p1058
I1
sS'href20151116europeparisterrorattackmastermindabdelhamidabaaoudindexhtml'
p1059
I1
sS'nameheaderSearchinput'
p1060
I1
sS'explains'
p1061
I2
sS'creature'
p1062
I1
sS'Hanover'
p1063
I2
sS'thumbnailhttpi2cdnturnercomcnnnextdamassets15111614030001kidsandtragedysmall11jpgdurationdescriptionlayouturi20151113artsgalleryseanyoroglaciermuralindexhtmlheadlineFaces'
p1064
I1
sS'blood'
p1065
I2
sS'Syria'
p1066
I1
sS'classlfootersearch'
p1067
I1
sS'short'
p1068
I2
sS'morphine'
p1069
I1
sS'Mexico'
p1070
I3
sS'anytime'
p1071
I2
sS'datavrcontentbox20151117europegermanynetherlandssoccercanceledindexhtml'
p1072
I1
sS'targetblankfood'
p1073
I1
sS'pay'
p1074
I3
sS'typesubmit'
p1075
I2
sS'thumbnailhttpi2cdnturnercomcnnnextdamassets15110619180002ritalevimontalcinirestrictedsmall11jpgdurationdescriptionlayouturi20151108worldcnnphotossyrianchildrenrefugeessleepingindexhtmlheadlineTerror'
p1076
I1
sS'defiant'
p1077
I1
sS'its'
p1078
I4
sS'idweatherheader'
p1079
I1
sS'style'
p1080
I1
sS'hrefus'
p1081
I1
sS'layouticonTypevideourivideosworld20151112migrantsjourneytoeuropedamonorigsdgcnnheadlineRefugees'
p1082
I1
sS'srchttpeditionicdncnncoma12173jscnnheaderfirstminjsscript'
p1083
I1
sS'detected'
p1084
I1
sS'might'
p1085
I1
sS'pleads'
p1086
I2
sS'return'
p1087
I6
sS'dataeqptsxsmall'
p1088
I18
sS'compound'
p1089
I1
sS'assumptions'
p1090
I1
sS'mystery'
p1091
I1
sS'hrefspecialsinternationalvideolandingvideosespanol'
p1092
I1
sS'Terrorists'
p1093
I1
sS'dataanalyticsfooteropinionsOpinionsaol'
p1094
I1
sS'cnnmobile'
p1095
I1
sS'found'
p1096
I1
sS'thumbnaildurationdescriptionSitting'
p1097
I1
sS'dataanalyticsfooterregionschinahrefchinaChinaalili'
p1098
I1
sS'classbreakingnewsmsgdivdivdivdivnav'
p1099
I1
sS'dataanalyticsfooteraboutus'
p1100
I1
sS'Federer'
p1101
I1
sS'timethumbnailhttpi2cdnturnercomcnnnextdamassets151023110127bondcarsspectresmall11jpgdurationdescriptionlayouturi20151105opinionsbergenisisonarollindexhtmlheadlineWhy'
p1102
I1
sS'lovers'
p1103
I2
sS'u003cstrongBrother'
p1104
I1
sS'dataimgbwhttpicdnturnercomcnneimg40logoscnngoogleplusbwpng'
p1105
I1
sS'housed'
p1106
I1
sS'timeline'
p1107
I1
sS'Espa\xc3\xb1olimg'
p1108
I1
sS'srchttpzcdnturnercomanalyticscnnexpanjsmdminjsscript'
p1109
I1
sS'typeradio'
p1110
I4
sS'Architecture'
p1111
I1
sS'articleListuri20151117europegermanynetherlandssoccercanceledindexhtmlheadlineu003cstrongCONCRETE'
p1112
I1
sS'beginning'
p1113
I1
sS'registryFilesplit0'
p1114
I1
sS'ideditionpickeredtionfooter'
p1115
I1
sS'searchbutton'
p1116
I1
sS'mecreateElementscriptmtypetextjavascriptmasync0msrcstaticyieldmocomymm2jsegetElementsByTagNamehead0egetElementsByTagNamebody0appendChildmelse'
p1117
I1
sS'persists'
p1118
I2
sS'americas'
p1119
I1
sS'datavrcontentboxvideostv20151117fatherexplainsparisterrorattackstoyoungsonorigcnn'
p1120
I1
sS'rainforest'
p1121
I1
sS'srchttpi2cdnturnercomcnnnextdamassets151116131822isisthreatdclarge169jpgnoscriptadivdiv'
p1122
I1
sS'hrefentertainment'
p1123
I1
sS'DategetTimescript'
p1124
I1
sS'feel'
p1125
I1
sS'dataanalyticsfooternewsintltravelhreftravelTravelalili'
p1126
I1
sS'bullied'
p1127
I1
sS'jet'
p1128
I1
sS'script'
p1129
I2
sS'2115'
p1130
I2
sS'otherif'
p1131
I1
sS'classcdheadlineiconspanah3divdivarticleuldivdiv'
p1132
I1
sS'hreftools'
p1133
I2
sS'classmlegallinks'
p1134
I11
sS'part'
p1135
I1
sS'adobeEnvironmentprodaspenContextprev10endSlatectaTextSign'
p1136
I1
sS'1914'
p1137
I1
sS'dataanalyticsheaderlogoadiv'
p1138
I1
sS'familys'
p1139
I1
sS'Mexicoimg'
p1140
I1
sS'Click'
p1141
I2
sS'Japans'
p1142
I1
sS'idjsusermsgbodytext'
p1143
I1
sS'classadadbnratf01'
p1144
I1
sS'dataanalyticsfooterprivacypolicy'
p1145
I1
sS'confirms'
p1146
I1
sS'classcontainera'
p1147
I1
sS'Fardowsa'
p1148
I1
sS'Germany'
p1149
I2
sS'peacethumbnailhttpi2cdnturnercomcnnnextdamassets151117135625unescoforpeace3small11jpgduration0115descriptionWe'
p1150
I1
sS'thumbnailhttpi2cdnturnercomcnnnextdamassets151116131822isisthreatdcsmall11jpgdurationdescriptionlayouturivideosworld20151117britishandfrenchfansuniteinsingingfrenchnationalanthemliveshotfosterwrncnnheadlineEngland'
p1151
I1
sS'Heroesimg'
p1152
I1
sS'HeroesCNN'
p1153
I1
sS'hrefhttpeditioncnncom20141119worldasiahumanfacejewels'
p1154
I2
sS'In'
p1155
I1
sS'depths'
p1156
I1
sS'most'
p1157
I3
sS'classcdheadlinetextstrongINTERACTIVEstrong'
p1158
I1
sS'The'
p1159
I8
sS'STADIUMh2noscriptFANS'
p1160
I1
sS'Google'
p1161
I3
sS'mobile'
p1162
I1
sS'cover'
p1163
I3
sS'transplant'
p1164
I2
sS'heres'
p1165
I1
sS'farspanspan'
p1166
I1
sS'positivethumbnaildurationdescriptionlayouturi20151117middleeastrussianmetrojetcrashbombindexhtmlheadlineRussia'
p1167
I1
sS'dataanalyticsheadertoolsextrasTools'
p1168
I1
sS'sonspanspan'
p1169
I1
sS'hrefweather'
p1170
I2
sS'retreatsthumbnailhttpi2cdnturnercomcnnnextdamassets151112120511malaysiarainforestresortsdatailangkawismall11jpgdurationdescriptionlayouticonTypegalleryuri20151112opinionsgallerysnowleopardsindexhtmlheadlineGloomy'
p1171
I1
sS'nameeditionprefheader'
p1172
I2
sS'dataanalyticslisthierarchicalxshyperlinka'
p1173
I1
sS'Kingdom'
p1174
I1
sS'dataanalyticsheadertvtvshowsTV'
p1175
I1
sS'ruin'
p1176
I2
sS'Muslim'
p1177
I1
sS'French'
p1178
I3
sS'hrefhttpwwwturnercomcareersWork'
p1179
I1
sS'classmlegallistli'
p1180
I1
sS'money'
p1181
I2
sS'Abdi'
p1182
I1
sS'8'
p1183
I1
sS'windowspanspan'
p1184
I1
sS'usalili'
p1185
I4
sS'his'
p1186
I7
sS'hit'
p1187
I1
sS'attacksthumbnailhttpi2cdnturnercomcnnnextdamassets151116184644candlesplacedelarepubliquesmall11jpgduration0126descriptionOn'
p1188
I1
sS'Arwa'
p1189
I1
sS'falseCNNAdsConfig'
p1190
I1
sS'him'
p1191
I3
sS'medicines'
p1192
I1
sS'CNNpageTimer'
p1193
I1
sS'idnavheader'
p1194
I1
sS'McGurk'
p1195
I1
sS'jade'
p1196
I2
sS'France'
p1197
I4
sS'see'
p1198
I3
sS'httpavisualrevenuecomvrsjsxparentNodeinsertBefores'
p1199
I1
sS'deploying'
p1200
I1
sS'dataanalyticsISIS20attacklisthierarchicalxsarticlea'
p1201
I7
sS'searchpgsection'
p1202
I1
sS'movie'
p1203
I1
sS'classlfootertoolsdiv'
p1204
I1
sS'fans'
p1205
I6
sS'Freedom'
p1206
I6
sS'europe'
p1207
I1
sS'classsearchfooterforminput'
p1208
I1
sS'classnav'
p1209
I1
sS'getAirportDataairportstatusserviceHosthttpservicesfaagovCNNBannerBreakpoints'
p1210
I1
sS'datasrcsmallhttpi2cdnturnercomcnnnextdamassets15111715584804germanystadiumevacrestrictedlarge169jpg'
p1211
I1
sS'AND'
p1212
I2
sS'hreftv'
p1213
I2
sS'last'
p1214
I1
sS'typetextjavascriptvar'
p1215
I1
sS'bludgeoned'
p1216
I2
sS'dataanalyticsheadertvTVadiv'
p1217
I1
sS'Nigerian'
p1218
I1
sS'Mosul'
p1219
I1
sS'devicedismissCookienameNotifiedIE8SupportvaluetrueexpirationTue'
p1220
I1
sS'passagethumbnailhttpi2cdnturnercomcnnnextdamassets151112111051refugeesturkeynovembersmall11jpgduration0156descriptionCNNs'
p1221
I1
sS'cnncomif'
p1222
I1
sS'lazyLoad'
p1223
I1
sS'unfolded'
p1224
I1
sS'idadmod85a882a72scriptNamehttpzcdnturnercomadscnnisinglescnnientitlement01jsidadmode74dbd68dscriptNamehttpzcdnturnercomadscnnisinglescnnientitlement02jsidadmod596291844scriptNamehttpzcdnturnercomadscnnisinglescnnientitlement03jsidadmod9a979d11scriptNamehttpzcdnturnercomadscnnisinglescnnientitlement04jsidadmod2b3ba0432scriptNamehttpzcdnturnercomadscnnisinglescnnientitlement05js'
p1225
I1
sS'War'
p1226
I1
sS'due'
p1227
I2
sS'trueenableWeather'
p1228
I1
sS'classcdheadlinetextUS'
p1229
I1
sS'else'
p1230
I5
sS'Broadcasting'
p1231
I2
sS'lives'
p1232
I1
sS'classmlegallistitem'
p1233
I1
sS'classmenucollapse'
p1234
I1
sS'look'
p1235
I3
sS'error'
p1236
I4
sS'would'
p1237
I1
sS'pregnantthumbnailhttpi2cdnturnercomcnnnextdamassets151113161500babyabdinoormohamadabdiheldbyhisgrandmotherhalimasomodimasmall11jpgdurationdescriptionThe'
p1238
I1
sS'dataanalyticsfootertranscripts'
p1239
I1
sS'dataanalyticsfooterworkforus'
p1240
I1
sS'datasrcmediumhttpi2cdnturnercomcnnnextdamassets151116131822isisthreatdcexlarge169jpg'
p1241
I1
sS'9'
p1242
I1
sS'httpgocnncomstreamCNNDemandLoadConfig'
p1243
I1
sS'conflict'
p1244
I1
sS'used'
p1245
I1
sS'classbreakingnewstitletextBreaking'
p1246
I1
sS'screamingbannertextFANS'
p1247
I1
sS'haunting'
p1248
I1
sS'classbreakingnewsdiv'
p1249
I1
sS'hostsearchwmoneycnncom'
p1250
I1
sS'datasrcminihttpi2cdnturnercomcnnnextdamassets15111715584804germanystadiumevacrestrictedsmall169jpg'
p1251
I1
sS'recordthumbnailhttpi2cdnturnercomcnnnextdamassets151117163811fedfistpumpsmall11jpgdurationdescriptionRoger'
p1252
I1
sS'dataanalyticsheadermorecnnmobileCNN'
p1253
I1
sS'Espa\xc3\xb1olalili'
p1254
I1
sS'Batmobile'
p1255
I1
sS'grievance'
p1256
I1
sS'c000'
p1257
I1
sS'classcdheadlinetextISIS'
p1258
I1
sS'classcdheadlinetextstrongNO'
p1259
I1
sS'world'
p1260
I3
sS'hrefworld'
p1261
I1
sS'cnlisthierarchicalxs'
p1262
I2
sS'rundown'
p1263
I1
sS'hostsearchwfacebookcom'
p1264
I1
sS'href20151117europegermanynetherlandssoccercanceledindexhtml'
p1265
I1
sS'scsec'
p1266
I1
sS'deliberately'
p1267
I1
sS'skinnydiv'
p1268
I1
sS'excited'
p1269
I1
sS'cnnihomepagetry'
p1270
I1
sS'victims'
p1271
I1
sS'game'
p1272
I1
sS'classlfooterweather'
p1273
I1
sS'classznbanner'
p1274
I1
sS'Worldwidealiolliolol'
p1275
I1
sS'OK'
p1276
I2
sS'stylist'
p1277
I1
sS'2016thumbnailhttpi2cdnturnercomcnnnextdamassets151112112741kenya1creditaksmall11jpgdurationdescriptionlayouturi20151115traveldetoxspasindexhtmlheadline9'
p1278
I1
sS'unstable'
p1279
I1
sS'Kongs'
p1280
I2
sS'Footagealili'
p1281
I1
sS'Featuresaliuldivlili'
p1282
I1
sS'dataanalyticsfootermoreweatherhrefweatherWeatheralili'
p1283
I1
sS'mathematical'
p1284
I1
sS'google'
p1285
I1
sS'classusermsgbodytextdivdivdivheader'
p1286
I1
sS'tym'
p1287
I1
sS'back'
p1288
I1
sS'classbucket'
p1289
I7
sS'Wembley'
p1290
I1
sS'classspecials'
p1291
I1
sS'c85600'
p1292
I1
sS'jewelry'
p1293
I4
sS'dataanalyticsfooternewssporthrefsportSportalili'
p1294
I1
sS'Brett'
p1295
I1
sS'crisis'
p1296
I1
sS'dataanalyticslisthierarchicalxsvideovideoa'
p1297
I1
sS'prod'
p1298
I1
sS'156yearold'
p1299
I2
sS'ShowlayouticonTypevideourivideosworld20151116parisattackslandmarksturnbluewhiteredorigsdgcnnheadlineLandmarks'
p1300
I1
sS'trueerror'
p1301
I1
sS'300'
p1302
I16
sS'continuing'
p1303
I1
sS'cdextrasmall'
p1304
I14
sS'step'
p1305
I2
sS'Mexicoalili'
p1306
I1
sS'taboo'
p1307
I1
sS'Russia'
p1308
I3
sS'dismissCookienametrusteConsentvaluetrueexpirationskiptrueheightsmall135medium110large130CNNVideoConfig'
p1309
I1
sS'dataanalyticsheadernewssportSportalili'
p1310
I1
sS'dataanalyticsfooterhelp'
p1311
I1
sS'falsewarn'
p1312
I1
sS'everthumbnailhttpi2cdnturnercomcnnnextdamassets151116113726facetransplantsplithardisonsmall11jpgdurationdescriptionlayouturi20151113travelluxurytravel2016indexhtmlheadline10'
p1313
I1
sS'hreftvscheduleeurope'
p1314
I1
sS'Ottoman'
p1315
I2
sS'dataanalyticsfooternewsworldhrefworldWorldalili'
p1316
I1
sS'classpgnorail'
p1317
I1
sS'terrorists'
p1318
I2
sS'retailer'
p1319
I2
sS'hrefspecials'
p1320
I3
sS'15yearold'
p1321
I1
sS'hreftwittercomcnni'
p1322
I2
sS'span'
p1323
I16
sS'opena'
p1324
I1
sS'long'
p1325
I1
sS'classzntopdiv'
p1326
I1
sS'znleftfluidrightstack'
p1327
I2
sS'homemade'
p1328
I1
sS'West'
p1329
I2
sS'classcontainer'
p1330
I1
sS'srccdndynamicyieldcomapi8766314apistaticjsdiv'
p1331
I1
sS'twitter'
p1332
I1
sS'branchthumbnailhttpi2cdnturnercomcnnnextdamassets151117121339mcdonaldshangzhoucardsmall11jpgdurationdescriptionAn'
p1333
I1
sS'methodget'
p1334
I2
sS'rolebuttonspan'
p1335
I2
sS'classymdivdiv'
p1336
I1
sS'films'
p1337
I1
sS'We\xe2\x80\x99ve'
p1338
I1
sS'Twitter'
p1339
I3
sS'datademandloadnotloaded'
p1340
I2
sS'up'
p1341
I7
sS'us'
p1342
I4
sS'ua'
p1343
I1
sS'called'
p1344
I2
sS'ConsentmessageTextWe'
p1345
I1
sS'hostsearchwwwwuseditionnextcnncom'
p1346
I1
sS'soars'
p1347
I1
sS'href20151117europegermanynetherlandssoccercanceledindexhtmlimg'
p1348
I1
sS'jsnavigationhamburgerdiv'
p1349
I1
sS'UTCexpirationPeriod2592000000oldCookieNamenoneoldCookieExpirationTue'
p1350
I1
sS'znintlhomepage1zone1'
p1351
I1
sS'TV'
p1352
I8
sS'retrace'
p1353
I1
sS'valuewwwlabel'
p1354
I2
sS'preventing'
p1355
I1
sS'upthumbnailhttpi2cdnturnercomcnnnextdamassets151115215537parismanhuntsalahabdeslamharlowlklv00001801small11jpgdurationdescriptionlayouturivideosworld20151116parisattackswomanhangingfromwindowledgecooperdntaccnnheadlineu003cstrongSURVIVOR'
p1356
I1
sS'Envoy'
p1357
I1
sS'classcdstatus'
p1358
I1
sS'militants'
p1359
I1
sS'falsegalleryAdClicks'
p1360
I1
sS'classshowposter'
p1361
I9
sS'ISIScontrolled'
p1362
I1
sS'e'
p1363
I2
sS'Googlealili'
p1364
I1
sS'memories'
p1365
I3
sS'targetblankRead'
p1366
I1
sS'Newsspandivdiv'
p1367
I1
sS'gang'
p1368
I1
sS'Boko'
p1369
I1
sS'1toLowerCasewinedition'
p1370
I1
sS'Bonds'
p1371
I1
sS'26yearold'
p1372
I1
sS'young'
p1373
I3
sS'dataimgbwhttpicdnturnercomcnneimg40logoscnntwitterbwpng'
p1374
I1
sS'mfooterbuckettvli'
p1375
I1
sS'attackers'
p1376
I1
sS'classcdheadlinetextMusic'
p1377
I1
sS'include'
p1378
I2
sS'spiritlike'
p1379
I1
sS'falseenableShareButtons'
p1380
I1
sS'facebook'
p1381
I1
sS'hrefhttpwwwcnncomprofileserinburnettprofileErin'
p1382
I1
sS'frisson'
p1383
I1
sS'shock'
p1384
I1
sS'try'
p1385
I1
sS'hrefhttpfoodporndailycom'
p1386
I1
sS'srchttpeditionicdncnncoma12173jscnnheadersecondminjsscript'
p1387
I1
sS'hrefspecialstvanchorsandreporters'
p1388
I1
sS'setRefDomwin'
p1389
I1
sS'trueenableAmazonDisplayAds'
p1390
I1
sS'Turkey'
p1391
I1
sS'bleeding'
p1392
I1
sS'dataanalyticsheaderfeaturesFeaturesadiv'
p1393
I1
sS'href20151112worldspacejunkimpactfeatindexhtml'
p1394
I1
sS'video'
p1395
I1
sS'forgivenessthumbnailhttpi2cdnturnercomcnnnextdamassets151116132221mournersbataclanminutesilencesmall11jpgduration0253descriptionA'
p1396
I1
sS'anthem'
p1397
I1
sS'middleeast'
p1398
I1
sS'Wennman'
p1399
I1
sS'access'
p1400
I2
sS'refreshsubscriptionErrorTextYour'
p1401
I2
sS'href20151115worldparisattacksindexhtml'
p1402
I1
sS'capital'
p1403
I1
sS'classitem'
p1404
I12
sS'ProvidermessageTextKeep'
p1405
I2
sS'mechaniclayouticonTypevideourivideosworld20151117parisattacksunescolightsupforpeaceorigsdgcnnheadlineUNESCO'
p1406
I1
sS'datavrcontentbox20151116worldparisattackssyrianrefugeesbacklashindexhtml'
p1407
I1
sS'following'
p1408
I1
sS'classmtrusteicon'
p1409
I1
sS'dataimghttpicdnturnercomcnneimg40logoscnngooglepluspng'
p1410
I1
sS'sexy'
p1411
I1
sS'dataanalyticsheadernewsstyleStylealili'
p1412
I1
sS'ideditionpickerwwwheader'
p1413
I1
sS'haunts'
p1414
I1
sS'trueCNNMailchimp'
p1415
I1
sS'functionDYAPIactions'
p1416
I1
sS'xdocument'
p1417
I1
sS'defeat'
p1418
I1
sS'Arabic'
p1419
I3
sS'chatterlayouturi20151005middleeastyazidiwomensuicideinisiscaptivityindexhtmlheadlineWomen'
p1420
I1
sS'beforethumbnailhttpi2cdnturnercomcnnnextdamassets151013141121dronestagramchristtheredeemersmall11jpgdurationdescriptionlayouturi20151116opinionswaldmanparistrumpiowavotersindexhtmlheadlineIs'
p1421
I1
sS'dataimghttpicdnturnercomcnneimg40logosimpactyourworldpng'
p1422
I1
sS'win'
p1423
I1
sS'KamanAnadolu'
p1424
I2
sS'dataanalyticsfooternewsentertainmenthrefentertainmentEntertainmentalili'
p1425
I1
sS'childrenthumbnailhttpi2cdnturnercomcnnnextdamassets15102318115601cnnphotossyrianchildrenteasesmall11jpgdurationdescriptionlayouturi20151026autoscoolest007bondcarsofalltimeindexhtmlheadlineThe'
p1426
I1
sS'names'
p1427
I1
sS'singing'
p1428
I3
sS'use'
p1429
I3
sS'from'
p1430
I12
sS'citySearchweathercitySearchenableInHeadertrueenableInFootertruegetForecastweathergetForecastserviceCitySearchHosthttpweathercnncomserviceForecastHosthttpweathercnncomstoredLocationsAmount6CNNZones'
p1431
I1
sS'next'
p1432
I1
sS'camera'
p1433
I2
sS'vehicle'
p1434
I1
sS'themselves'
p1435
I1
sS'harrowing'
p1436
I2
sS'inpersistentCtaTextExperiencetemppassTempPassCNN10minmutedPlayerstartTime0stopInterval30stopTime0timeZoneGMTembedLinksclipboardOperationsSWFhttpicdnturnercomcnnvideoassetsCNNVideoClipboardCopyswfbuttonImagecdnassetpathbuildassetsembedvideobuttonpngimageButtonXOffset0imageButtonYOffset3embedLinkPatternu003ciframe'
p1437
I1
sS'rarest'
p1438
I4
sS'occurred'
p1439
I2
sS'Twitterimg'
p1440
I1
sS'women'
p1441
I1
sS'reportthumbnailhttpi2cdnturnercomcnnnextdamassets151105103638isisflagtanksmall11jpgdurationdescriptionIslamist'
p1442
I1
sS'crosses'
p1443
I1
sS'Taiwanese'
p1444
I1
sS'anywhere'
p1445
I2
sS'Video'
p1446
I1
sS'about'
p1447
I9
sS'cdcard'
p1448
I16
sS'do'
p1449
I2
sS'pieces'
p1450
I2
sS'classad'
p1451
I4
sS'xsmall'
p1452
I2
sS'Policy'
p1453
I1
sS'rape'
p1454
I1
sS'srchttpeditionicdncnncoma12173jscnnanalyticsminjsscript'
p1455
I1
sS'Raqqa'
p1456
I1
sS'HIV'
p1457
I1
sS'classcdheadlinetextEngland'
p1458
I1
sS'regions'
p1459
I1
sS'dataanalyticsfooteradchoices'
p1460
I1
sS'dataanalyticsfootervideomustwatchvideoshrefspecialsstoriesworthwatchingvideoMust'
p1461
I1
sS'frameborder0u003ciframenetworkcnnCNNWeatherConfig'
p1462
I1
sS'hrefvideosworld20151117britishandfrenchfansuniteinsingingfrenchnationalanthemliveshotfosterwrncnn'
p1463
I1
sS'CNNSocialConfig'
p1464
I1
sS'solidarity'
p1465
I1
sS'classmcopyrightspan'
p1466
I1
sS'u003ca'
p1467
I19
sS'jsnavigation'
p1468
I1
sS'Weather'
p1469
I1
sS'Showsalili'
p1470
I2
sS'Greece'
p1471
I1
sS'necklace'
p1472
I2
sS'datavideoidworld20151117britishandfrenchfansuniteinsingingfrenchnationalanthemliveshotfosterwrncnndiv'
p1473
I1
sS'cdhasbanner'
p1474
I1
sS'weatherfooter'
p1475
I1
sS'CNNcontentModel'
p1476
I1
sS'including'
p1477
I2
sS'Projectimg'
p1478
I1
sS'cruise'
p1479
I1
sS'datalocationheader'
p1480
I1
sS'hreftech'
p1481
I1
sS'decay'
p1482
I1
sS'dataeqptsmini'
p1483
I2
sS'Director'
p1484
I1
sS'degrees'
p1485
I1
sS'togetherspanspan'
p1486
I1
sS'2015'
p1487
I5
sS'Googleimg'
p1488
I1
sS'autoScrollEnabledfalseautoScrollInterval8000pauseAutoscrollWhenInvisibletruepauseVideoWhenInvisibletrueresponsiveContainerConstraintsmobile480tablet800desktop2500scrollPausesJumbotronInterval5000CNNLazyLoad'
p1489
I1
sS'classnavheader'
p1490
I1
sS'worlds'
p1491
I4
sS'thrill'
p1492
I1
sS'Fooku003ca'
p1493
I2
sS'truth'
p1494
I2
sS'falseenableOmniture'
p1495
I1
sS'idsearchInputFooter'
p1496
I1
sS'Network'
p1497
I1
sS'classcntitle'
p1498
I1
sS'mfooterbucketwidgetsoldivdiv'
p1499
I1
sS'classcdwrapper'
p1500
I16
sS'hrefplusgooglecomCNNInternational'
p1501
I2
sS'hrefsport'
p1502
I1
sS'our'
p1503
I2
sS'out'
p1504
I2
sS'entertainment'
p1505
I1
sS'attackslayouturi20151114opinionsparisattacksisisstrategyindexhtmlheadlineOpinion'
p1506
I1
sS'dataanalyticsheadervideoshowsShowsalili'
p1507
I1
sS'attackslayouticonTypevideouri20151116worldparisattackssyrianrefugeesbacklashindexhtmlheadlineu003cstrongNO'
p1508
I1
sS'dataanalyticsheadercnnmobileCNN'
p1509
I1
sS'hrefhttpwwwchowtaifookcomen'
p1510
I2
sS'red'
p1511
I2
sS'srccdndynamicyieldcomapi8766314apidynamicjsscript'
p1512
I1
sS'This'
p1513
I1
sS'attending'
p1514
I1
sS'UNESCOs'
p1515
I1
sS'could'
p1516
I3
sS'Espa\xc3\xb1olaliolliolol'
p1517
I1
sS'times'
p1518
I1
sS'samesex'
p1519
I2
sS'designed'
p1520
I2
sS'datavaluehttpcnnespanolcnncomEspa\xc3\xb1ollili'
p1521
I2
sS'blown'
p1522
I1
sS'dataanalyticsheaderweatherWeatheralili'
p1523
I1
sS'prophecythumbnailhttpi2cdnturnercomcnnnextdamassets151026153844trashyfashion9small11jpgdurationdescriptionAn'
p1524
I1
sS'classeditionpickerdiv'
p1525
I1
sS'dataanalyticsfooterregionsRegionsaol'
p1526
I1
sS'mfooterbucketfeaturesli'
p1527
I1
sS'attack'
p1528
I2
sS'classsearchinputfield'
p1529
I1
sS'Iraq'
p1530
I1
sS'evacuated'
p1531
I2
sS'IncTurner'
p1532
I1
sS'classmfootertitlelink'
p1533
I7
sS'dataanalyticsfooterfeaturesFeaturesaol'
p1534
I1
sS'dataanalyticsfooterregionsmiddleeasthrefmiddleeastMiddle'
p1535
I1
sS'EVACUATE'
p1536
I2
sS'ProjectCNN'
p1537
I1
sS'dataanalyticsfooteropinionsireporthrefireportcnncomiReportaliolliolol'
p1538
I1
sS'hrefspecialscnnheroes'
p1539
I2
sS'bed'
p1540
I1
sS'dataanalyticsfootertvTVaol'
p1541
I1
sS'classsearchbuttontextSearchspanbuttonformdivdiv'
p1542
I1
sS'orchestrated'
p1543
I1
sS'datasrcfull16x9httpi2cdnturnercomcnnnextdamassets15111715584804germanystadiumevacrestrictedfull169jpg'
p1544
I1
sS'Bergen'
p1545
I1
sS'threshold640script'
p1546
I1
sS'Extrasalili'
p1547
I3
sS'classpg'
p1548
I1
sS'partnership'
p1549
I2
sS'classsearchbuttontextToggle'
p1550
I1
sS'cdhyperlink'
p1551
I1
sS'dataanalyticsheaderregionsafricaAfricaalili'
p1552
I1
sS'hrefmiddleeast'
p1553
I1
sS'parks'
p1554
I1
sS'concerns'
p1555
I2
sS'warmerthumbnailhttpi2cdnturnercomcnnnextdamassets151109134020climatechange4degreessmall11jpgdurationdescriptionlayouticonTypegalleryuri20150903luxurygallery11000diamondswallacechanindexhtmlheadlineWhat'
p1556
I1
sS'which'
p1557
I1
sS'trueenableZoneOutbrain'
p1558
I1
sS'hreftranscriptsTranscriptsalili'
p1559
I1
sS'classsearch'
p1560
I2
sS'collaboration'
p1561
I2
sS'expires'
p1562
I2
sS'href20151117worldparisattacksindexhtml'
p1563
I1
sS'said'
p1564
I1
sS'CNNeventTimers'
p1565
I1
sS'Policyu003ca'
p1566
I1
sS'ProvidertroubleShootingTextIf'
p1567
I2
sS'dataanalyticsfootermorephotoshrefspecialsphotosPhotosalili'
p1568
I1
sS'ParislayouticonTypevideourivideoshealth20151116facetransplantsurgerypatientnyufacialplasticorigcnnheadlineFirefighter'
p1569
I1
sS'face'
p1570
I3
sS'targetblankWallace'
p1571
I2
sS'Earth'
p1572
I1
sS'fact'
p1573
I1
sS'emerging'
p1574
I1
sS'Paris'
p1575
I10
sS'deaththumbnailhttpi2cdnturnercomcnnnextdamassets150915104427japanyakuzacrimebosssmall11jpgdurationdescriptionA'
p1576
I1
sS'hrefhttpstheconversationcomautopicspornography'
p1577
I1
sS'marriagethumbnailhttpi2cdnturnercomcnnnextdamassets15080417115325selfies0805small11jpgdurationdescriptionIreland'
p1578
I1
sS'reclaiming'
p1579
I1
sS'soldiers'
p1580
I1
sS'fear'
p1581
I1
sS'hrefcollectionLicense'
p1582
I1
sS'terrorthumbnailhttpi2cdnturnercomcnnnextdamassets150806193341calaismigrantssmall11jpgdurationdescriptionlayouturi20151113opinionskennedysyriavietnamindexhtmlheadlineSyria'
p1583
I1
sS'dataanalyticsfooterregionsasiahrefasiaAsiaalili'
p1584
I1
sS'CNNs'
p1585
I2
sS'should'
p1586
I1
sS'riding'
p1587
I1
sS'thousands'
p1588
I1
sS'hrefcnnespanolcnncom'
p1589
I2
sS'mediaimageresponsive'
p1590
I2
sS'specialstitleTextYour'
p1591
I2
sS'watching'
p1592
I2
sS'u003cstrongPregnant'
p1593
I1
sS'idsearchInputNav'
p1594
I1
sS'u003cawas'
p1595
I1
sS'words'
p1596
I2
sS'timing'
p1597
I1
sS'namefooterSearch'
p1598
I1
sS'Because'
p1599
I1
sS'avatarhostavatarcnncomembedscriptsinstagramjsplatforminstagramcomenUSembedsjstwitterjsplatformtwittercomwidgetsjslivefyrejscdnlivefyrecomLivefyrejsgigyaappId3gtUbleJNtrRITgx1mMci7GcIrH8xL9WVfAbzSa4zpFrRwnpqeYd8QTRkr7VCenableOnLeaftrueenableOnFirstZonetrueshareStatsPostURLhttpactioneventcnncomapiv1eventaddEventlivefyremobileCommentsBaseUrlhttpcnnbootstrapfyrecoapi11publiccommentsncommentsnetworkcnnfyrecositeId353270srcDomainhttpcdnlivefyrecomappembedappembed066msibauthUrlcnncommentslivefyreauthenticationbaseUrlhttpsaudiencecnncomservicescnnerrorUrlcnncommentslivefyreerrorloginUrlcnncommentslivefyreloginwhatsappbaseUrlwhatsappsendtextCNN'
p1600
I1
sS'ONu003cstrongthumbnailhttpi2cdnturnercomcnnnextdamassets15111715584804germanystadiumevacrestrictedsmall11jpgdurationdescriptionlayouturi20151117europeparisattacksataglanceindexhtmlheadlineu003cstrongCAR'
p1601
I1
sS'dataimgbwhttpicdnturnercomcnneimg40logosimpactyourworldbwpng'
p1602
I1
sS'worldthumbnailhttpi2cdnturnercomcnnnextdamassets151110094950aktease2small11jpgdurationdescriptionlayouturi20151029asianorthkoreaunforcedlaboroverseasindexhtmlheadlineNorth'
p1603
I1
sS'Hardison'
p1604
I1
sS'spleenlayouturi20151012architecturewhatruinporntellsusaboutruinsandpornindexhtmlheadlineWhat'
p1605
I1
sS'sitethumbnailhttpi2cdnturnercomcnnnextdamassets151117201220bataclanpastconcertsmall11jpgdurationdescriptionThousands'
p1606
I1
sS'Espa\xc3\xb1olaliuldivlili'
p1607
I1
sS'UTCheightsmall120medium100large110idtrusteheaderTextCookie'
p1608
I1
sS'entertainmentzoneadIdadrectbtf02outBrainIdAR38healthzoneadIdadrectatf01outBrainIdSF8livingzoneadIdadrectatf01outBrainIdSF9politicszoneadIdadrectatf01outBrainIdSF6techzoneadIdadrectatf01outBrainIdSF7travelzoneadIdadrectatf01outBrainIdSF10uszoneadIdadrectatf01outBrainIdSF4worldzoneadIdadrectatf01outBrainIdSF5CNNTripAdvisor'
p1609
I1
sS'PLAYS'
p1610
I2
sS'national'
p1611
I1
sS'httpzcdnturnercomadscnnicnnihomepagejs'
p1612
I1
sS'edition'
p1613
I4
sS'BelgianBeninese'
p1614
I1
sS'cdlarge'
p1615
I2
sS'state'
p1616
I2
sS'ends'
p1617
I1
sS'spanspan'
p1618
I3
sS'key'
p1619
I2
sS'href20151117worldcharliehebdonewcoverindexhtml'
p1620
I1
sS'trueenableBreakingNews'
p1621
I1
sS'joke'
p1622
I1
sS'classmoremeganavsection'
p1623
I1
sS'la'
p1624
I1
sS'agree'
p1625
I2
sS'Zap'
p1626
I1
sS'dataanalyticsfooterregionsushrefusUSalili'
p1627
I1
sS'dataanalyticslisthierarchicalxsarticlediv'
p1628
I4
sS'layouturi20151117artsphotographerfabricemonteirotheprophecyindexhtmlheadlinePhotographer'
p1629
I1
sS'laugh'
p1630
I1
sS'winning'
p1631
I1
sS'earning'
p1632
I1
sS'adrefreshadbannerdivdivdiv'
p1633
I2
sS'Crunch'
p1634
I1
sS'apiEndpointhttpmailcarcnncomapiv1'
p1635
I1
sS'classbreakingnewsclosebtndivdiv'
p1636
I1
sS'Brooklyn'
p1637
I1
sS'intltravel'
p1638
I1
sS'waste'
p1639
I1
sS'Serviceu003cadismissCookienameCNNtosAgreedvaluetrueexpirationTue'
p1640
I1
sS'missileslayouturi20151116europeparisterrorattackmastermindabdelhamidabaaoudindexhtmlheadlineWho'
p1641
I1
sS'diversity'
p1642
I1
sS'datavrcontentbox20151114opinionsparisattacksisisstrategyindexhtml'
p1643
I1
sS'classlfootertoolsweatherdiv'
p1644
I1
sS'461'
p1645
I2
sS'460'
p1646
I18
sS'hrefvideosworld20151116parisattackswomanhangingfromwindowledgecooperdntaccnn'
p1647
I1
sS'c95680'
p1648
I1
sS'volunteer'
p1649
I1
sS'trueenableVideoEndSlate'
p1650
I1
sS'Espa\xc3\xb1ol'
p1651
I3
sS'General'
p1652
I1
sS'stunning'
p1653
I1
sS'THREAT'
p1654
I2
sS'dataimghttpicdnturnercomcnneimg40logoscnnfacebookpng'
p1655
I1
sS'cdvideo'
p1656
I4
sS'reportslayouticonTypevideouri20151117worldcharliehebdonewcoverindexhtmlheadlineNew'
p1657
I1
sS'dataanalyticseditionpickerli'
p1658
I2
sS'site'
p1659
I2
sS'weighed'
p1660
I1
sS'dataanalyticsheaderregionsusUSalili'
p1661
I1
sS'claimed'
p1662
I2
sS'dataanalyticsfootertvschedulehreftvscheduleeuropeSchedulealili'
p1663
I1
sS'classquicklinks'
p1664
I1
sS'terrorist'
p1665
I1
sS'falsetimeStamp'
p1666
I1
sS'classbannertext'
p1667
I1
sS'unite'
p1668
I1
sS'carsthumbnailhttpi2cdnturnercomcnnnextdamassets15110913431220batmobilerestrictedsmall11jpgdurationdescriptionKapow'
p1669
I1
sS'c105760'
p1670
I1
sS'largest'
p1671
I6
sS'terrorism'
p1672
I1
sS'AZalili'
p1673
I3
sS'expirederrorSlatedefaultTextAn'
p1674
I2
sS'CNNgou003cbrSign'
p1675
I2
sS'11551'
p1676
I2
sS'frequently'
p1677
I1
sS'off'
p1678
I2
sS'faultthumbnailhttpi2cdnturnercomcnnnextdamassets131130213718paulwalkersmall11jpgdurationdescriptionPorsche'
p1679
I1
sS'searchfieldform'
p1680
I1
sS'fighting'
p1681
I1
sS'States'
p1682
I1
sS'Have'
p1683
I1
sS'Paristhumbnailhttpi2cdnturnercomcnnnextdamassets151116220345sydneyoperahouseparistributesmall11jpgduration0112descriptionFamiliar'
p1684
I1
sS'datavrcontentboxhttpwwwcnncominteractive201511worldparisvictims'
p1685
I1
sS'Leadershipaliolliolol'
p1686
I1
sS'srchttpchoicestrustecomgetnameadmarkericontrpng'
p1687
I1
sS'tco'
p1688
I1
sS'Sunday'
p1689
I1
sS'instructionsu003cagoSmartLinkhttpcnnitgopersistentCtacobrandingTextIn'
p1690
I2
sS'href20151117europebataclanmemoriesparisattacksindexhtml'
p1691
I1
sS'Closing'
p1692
I1
sS'ads'
p1693
I1
sS'Fabrice'
p1694
I1
sS'pgwrapper'
p1695
I1
sS'By'
p1696
I1
sS'match'
p1697
I2
sS'jsmeganavdivdivnavheaderdiv'
p1698
I1
sS'historic'
p1699
I1
sS'know'
p1700
I1
sS'classcmcssubscriptionwrapper'
p1701
I1
sS'you'
p1702
I6
sS'Proof'
p1703
I1
sS'Fashion'
p1704
I1
sS'like'
p1705
I3
sS'sofa'
p1706
I1
sS'dataanalyticsheaderopinionsOpinionsadiv'
p1707
I1
sS'dataanalyticsfootermoreMore\xe2\x80\xa6aol'
p1708
I1
sS'windowdocumentdomain'
p1709
I1
sS'withcountdownTextPreview'
p1710
I2
sS'dataimghttpicdnturnercomcnneimg40logosheroespng'
p1711
I1
sS'refugees'
p1712
I2
sS'page'
p1713
I1
sS'shabby'
p1714
I1
sS'classmcopyrightinnercontainerdiv'
p1715
I1
sS'briefly'
p1716
I1
sS'tdark'
p1717
I1
sS'datavrcontentbox20151116europeparisterrorattackmastermindabdelhamidabaaoudindexhtml'
p1718
I1
sS'home'
p1719
I1
sS'dataanalyticsfootertvfacesofcnnworldwidehrefspecialstvanchorsandreportersFaces'
p1720
I1
sS'searchfooterform'
p1721
I1
sS'does'
p1722
I2
sS'leader'
p1723
I1
sS'schedule'
p1724
I1
sS'pornu003ca'
p1725
I2
sS'1100div'
p1726
I13
sS'host'
p1727
I1
sS'wineditionadTargetsrefdom'
p1728
I6
sS'classcd'
p1729
I16
sS'puts'
p1730
I1
sS'getting'
p1731
I1
sS'classcn'
p1732
I2
sS'u003cimg'
p1733
I1
sS'US'
p1734
I1
sS'layouticonTypevideourivideostv20151117mostefaiparisattackerrelativeerinsoterincnnheadlineAttackers'
p1735
I1
sS'5yearold'
p1736
I1
sS'own'
p1737
I3
sS'weather'
p1738
I1
sS'promise'
p1739
I1
sS'editioncnncommobilemobilewebhomepage'
p1740
I1
sS'artists'
p1741
I1
sS'firefighter'
p1742
I1
sS'Facebookalili'
p1743
I1
sS'var'
p1744
I5
sS'November'
p1745
I4
sS'href20151117opinionsisisnomilitaryanswerpatonwalshindexhtml'
p1746
I1
sS'function'
p1747
I8
sS'interest'
p1748
I1
sS'hrefwwwfacebookcomcnninternational'
p1749
I2
sS'dataanalyticsheadercnnleadershipCNN'
p1750
I1
sS'classsections'
p1751
I7
sS'Heroes'
p1752
I3
sS'he'
p1753
I5
sS'made'
p1754
I3
sS'dataanalyticsheaderregionsamericasAmericasaliuldivlili'
p1755
I1
sS'onceinalifetime'
p1756
I1
sS'cnnmobileweblinktag2CNNAirportDelaysConfig'
p1757
I1
sS'piece'
p1758
I2
sS'urging'
p1759
I1
sS'sonthumbnailhttpi2cdnturnercomcnnnextdamassets151117161328fatherexplainsparisterrorattackstoyoungsonorig00000000small11jpgduration0103descriptionA'
p1760
I1
sS'hrefAdChoicesalili'
p1761
I1
sS'trueenableVisualRevenueVideo'
p1762
I1
sS'targetblanksomething'
p1763
I1
sS'deaths'
p1764
I1
sS'registryFile'
p1765
I2
sS'idjsusermsgheadertext'
p1766
I1
sS'Fridayu003ca'
p1767
I1
sS'idadbnratf01'
p1768
I1
sS'hrefopinions'
p1769
I2
sS'loosespanspan'
p1770
I1
sS'adrefreshadbodydivdivdivvar'
p1771
I1
sS'ingredients'
p1772
I1
sS'deadly'
p1773
I1
sS'classzntopbackgrounddivdivdiv'
p1774
I1
sS'hrefhttpstheconversationcomstrugglestreetispovertypornwithanextradoseofclassracism41346'
p1775
I1
sS'book'
p1776
I1
sS'ledge'
p1777
I1
sS'mfootersubtitlestvli'
p1778
I1
sS'junk'
p1779
I1
sS'intlhomepage1zone1intlhomepage1zone2intlhomepage1zone3intlhomepage1zone4intlhomepage2zone1intlhomepage3zone1intlhomepage3zone3intlhomepage3zone4'
p1780
I1
sS'escapethumbnailhttpi2cdnturnercomcnnnextdamassets151116204555parisattackswomanhangingfromwindowledgecooperdntac00002405small11jpgduration0212descriptionCNNs'
p1781
I1
sS'amp'
p1782
I3
sS'hrefinteractivemobile'
p1783
I2
sS'attacksthumbnailhttpi2cdnturnercomcnnnextdamassets151117163946francerussiaunitedstatesstepupattacksagainstisisbrettmcgurkintvamanpour00043420small11jpgduration0605descriptionUnited'
p1784
I1
sS'dataanalyticsheaderCNN'
p1785
I16
sS'classmfooterbucket'
p1786
I8
sS'understand'
p1787
I1
sS'dataanalyticsISIS20attacklisthierarchicalxsarticlediv'
p1788
I7
s.