(dp0
S'hrefnewsworldeurope34842535'
p1
I2
sS'revsportheadline'
p2
I3
sS'bbccookiesflag'
p3
I3
sS'spiders'
p4
I2
sS'Kyrgyz'
p5
I1
sS'revworldinpictures3source'
p6
I1
sS'segments'
p7
I1
sS'tagtechnology'
p8
I2
sS'Watch'
p9
I1
sS'hrefhttpwwwbbccomnewstechnology34783770'
p10
I1
sS'keyValues'
p11
I1
sS'windoworbreferrer'
p12
I1
sS'afigmanagerinclude'
p13
I1
sS'istatsisEnabled'
p14
I1
sS'strforvar'
p15
I1
sS'under'
p16
I2
sS'China'
p17
I3
sS'requirepaths'
p18
I2
sS'updated'
p19
I1
sS'GAHUZA'
p20
I1
sS'risk'
p21
I1
sS'worldimg'
p22
I1
sS'rise'
p23
I1
sS'modulecollapseimages'
p24
I9
sS'every'
p25
I8
sS'\xd9\x86\xd9\x87\xd9\x85'
p26
I2
sS'revlanguagesheadline'
p27
I4
sS'withkeywordslanguageorbTransitionalfalseoutbrainEnabledtruepalEnvliveproductNamesectionssiteCatalystEnabledtruecomScoreEnabledtrueslotssponsoredByTextis'
p28
I1
sS'srchttpichefbbcicoukwwhp144cpsprodpb14771production866528381024ldbth209sketchofanijpg'
p29
I1
sS'venue'
p30
I3
sS'classtoplistitembullet5span'
p31
I1
sS'datavideoquotcontenttypequotquotvideoquotquotnumquotquot10quotquottypequotquotMAPquotquottitlequotquotWhat'
p32
I1
sS'altwhole'
p33
I1
sS'artist'
p34
I1
sS'documentcookiematchckpfAPHID'
p35
I1
sS'orbfootergrey'
p36
I1
sS'direct'
p37
I3
sS'second'
p38
I1
sS'street'
p39
I2
sS'hrefportuguese'
p40
I1
sS'statusbarStatusbarididctastatusbarpubliclyCacheabletrue'
p41
I1
sS'alt'
p42
I9
sS'aircraftimg'
p43
I1
sS'Fireman'
p44
I2
sS'classtoplistheadingintroFrom'
p45
I1
sS'hrefhttpwwwbbccomfuture'
p46
I1
sS'orbnavempty'
p47
I1
sS'datasrchttpichefbbcicoukwwhpwidthcpsprodpbFF50production86606356lecrowbarjpg'
p48
I1
sS'hrefnewsscienceenvironment34832284'
p49
I2
sS'altAn'
p50
I1
sS'hrefnewsworldasia34695863'
p51
I2
sS'new'
p52
I21
sS'idorbfooter'
p53
I1
sS'gdocumentbggetElementByIdblqpremasteggetElementByIdblqbbccookiestmplafifbgcreateElementagcreateElementdivfeinnerHTMLffreplaceCDATAreplaceainnerHTMLfbappendChildablqCookieContinueButtonggetElementByIdbbccookiescontinuebuttonblqCookieContinueButtononclickfunctionaparentNoderemoveChildareturn'
p54
I1
sS'men'
p55
I2
sS'jquery19'
p56
I1
sS'documentcookieogetfunctionreturn'
p57
I1
sS'dataaltMapimg'
p58
I1
sS'sandboxintdevbbccotestwindowlocationhref'
p59
I1
sS'path'
p60
I2
sS'advertmodulefeature3'
p61
I1
sS'hrefhttpwwwbbccoukjapanese'
p62
I1
sS'moduleworldservice'
p63
I1
sS'adsToDisplay'
p64
I1
sS'Tuesday'
p65
I2
sS'documentwriteunescape3Cscript'
p66
I3
sS'smoke'
p67
I2
sS'Lauerimg'
p68
I1
sS'hostmatchwwwinttesti'
p69
I1
sS'videoitemlatest'
p70
I3
sS'classbbccomslot'
p71
I10
sS'altZayn'
p72
I1
sS'datasrchttpichefbbcicoukwwhpwidthcpsprodpb3B6Bproduction86711251gazleccycropjpg'
p73
I1
sS'explained'
p74
I3
sS'dataaltJonah'
p75
I1
sS'dataaltISimg'
p76
I1
sS'strreturn'
p77
I1
sS'idCookiegetInstance'
p78
I1
sS'idbbccommpubottom1234'
p79
I1
sS'istatslogerror'
p80
I1
sS'windowlocationprotocol'
p81
I1
sS'hrefhttpwwwbbccomtravel'
p82
I3
sS'until'
p83
I1
sS'altDriving'
p84
I1
sS'defineidstatusbarconfig'
p85
I1
sS'classorbnavsec'
p86
I2
sS'music'
p87
I2
sS'isActive'
p88
I2
sS'hrefhttpwwwbbccomnewsworlduscanada34784705'
p89
I1
sS'classtoplistitembullet4span'
p90
I1
sS'tell'
p91
I2
sS'1000'
p92
I1
sS'hrefhttpwwwbbccomculture'
p93
I1
sS'datasrchttpichefbbcicoukwwhpwidthcpsprodpb2AF1production86739901policegettyjpg'
p94
I1
sS'wary'
p95
I1
sS'wslanguageas'
p96
I1
sS'wslanguagear'
p97
I1
sS'classfeaturead'
p98
I6
sS'Hollandequotquotpidquotquotp038cg61quotquotsourcenamequotquotEuropequotquotsourceurlquotquotnewsworldeuropequotquotcreatedquotquot20151118T0042180000quotquotupdatedquotquot20151118T0042180000quotquotorigincodequotquotcpsprodpbquotquotgeliconquotquotvideoquotquotsourceidquotquotvideosquotquotitemtypequotquotfeedquotquotallowadvertisingquottruequotdurationquotquotPT1M30Squot'
p99
I1
sS'istats1httpstaticbbcicoukframeworksistats0284modulesistats1'
p100
I1
sS'hold'
p101
I2
sS'must'
p102
I5
sS'Crazy'
p103
I2
sS'room'
p104
I1
sS'1997'
p105
I1
sS'dataaltGaz'
p106
I1
sS'classweathersearch'
p107
I1
sS'quarterh3'
p108
I1
sS'Datenew'
p109
I3
sS'hrefnewsinpictures34775283'
p110
I2
sS'Euro'
p111
I1
sS'SignupEnd'
p112
I1
sS'iconaudio'
p113
I1
sS'advertmodulefeature4'
p114
I1
sS'idbbccomwallpaperad'
p115
I1
sS'advertmpubottomdiv'
p116
I1
sS'advertmodulefeature1'
p117
I1
sS'advertmodulefeature2'
p118
I1
sS'give'
p119
I3
sS'hreftermsTerms'
p120
I1
sS'want'
p121
I4
sS'Digital'
p122
I1
sS'OBJECTTOKENObjectESCAPEDCHARnru2028u2029u000Au000Du005CALLOWEDCHARESCAPEDCHARESCAPEDCHARKEYALLOWEDCHARVALUEnullALLOWEDCHAROBJECTTOKENKEYVALUEKEYVALUEKEYVALUESEQUENCEKEYVALUEKEYVALUEOBJECTLITERALKEYVALUESEQUENCEobjectPatternnew'
p123
I1
sS'uplift'
p124
I1
sS'absolute'
p125
I1
sS'Abaaoudimg'
p126
I1
sS'mapidctaoverlayManager'
p127
I1
sS'end'
p128
I2
sS'idgnlContinuousPlayEnabled'
p129
I1
sS'idgnlAnalyticsEnabled'
p130
I1
sS'song'
p131
I3
sS'promoManagereventpromoloadedfiree'
p132
I1
sS'interview'
p133
I1
sS'mediahorizontal'
p134
I10
sS'config'
p135
I1
sS'datasrchttpichefbbcicoukwwhpwidthcpsprodpb31AAproduction86741721googleplusscreenpng'
p136
I1
sS'UKa'
p137
I1
sS'idorbsearchbutton'
p138
I1
sS'Zealand'
p139
I1
sS'dataaltDutch'
p140
I1
sS'after'
p141
I4
sS'dateifthisstartTsthissignupEndTsthissignupEndTsthisendTsthrow'
p142
I1
sS'defineidconfig'
p143
I1
sS'classwsheadline'
p144
I4
sS'Will'
p145
I1
sS'nodeparentNodeclassName'
p146
I2
sS'rolecontentinfo'
p147
I1
sS'classorbbanner'
p148
I1
sS'idCookieInstance'
p149
I1
sS'All'
p150
I2
sS'hrefaccessibilityAccessibility'
p151
I2
sS'third'
p152
I2
sS'amid'
p153
I1
sS'wslanguageso'
p154
I1
sS'wslanguagesi'
p155
I1
sS'Japanese'
p156
I2
sS'revsportoverlay'
p157
I3
sS'classforecast3'
p158
I1
sS'classforecast2'
p159
I1
sS'classforecast1'
p160
I1
sS'classforecast4'
p161
I1
sS'hrefpersian'
p162
I1
sS'atrocity'
p163
I3
sS'revnewssource'
p164
I3
sS'wine'
p165
I2
sS'bIDENTITYtestdocumentcookie'
p166
I1
sS'adshttpstaticbbcicoukwwhp1890modulesads'
p167
I1
sS'classorbnavshop'
p168
I2
sS'office'
p169
I3
sS'over'
p170
I5
sS'setConfig'
p171
I1
sS'responsive'
p172
I1
sS'mayor'
p173
I3
sS'before'
p174
I4
sS'mapidctaidcta1'
p175
I1
sS'img'
p176
I7
sS'responsivedefault'
p177
I1
sS'fix'
p178
I1
sS'datavideoquotcontenttypequotquotvideoquotquotnumquotquot10quotquottypequotquotMAPquotquottitlequotquotDutch'
p179
I1
sS'classorbnavthemedynamic'
p180
I2
sS'destroyed'
p181
I1
sS'spoken'
p182
I1
sS'classmediacontent'
p183
I50
sS'falsewhilestrmatchobjectPatternstrstrreplaceobjectPatternOBJECTTOKENreturn'
p184
I1
sS'h2BBC'
p185
I1
sS'qfcachefunction'
p186
I1
sS'choicesa'
p187
I1
sS'arialabelledbyorbnav'
p188
I1
sS'attacksquotquotimgquotquothttpichefbbcicoukwwhp800cpsprodpb4918production8672178186721779jpgquotquotimgalttextquotquotRefugees'
p189
I1
sS'one'
p190
I2
sS'Date20154210000getTimePOLICYEXPIRYCOOKIENAMEcknspolicyexpsetEverywhereicookiesEnabledfunctionvar'
p191
I1
sS'classresponsiveimagediv'
p192
I58
sS'India'
p193
I3
sS'datasrchttpichefbbcicoukwwhpwidthcpsprodpb4B9Cproduction86665391lesbosjpg'
p194
I1
sS'c\xc6\xa1'
p195
I2
sS'Entertainmenta'
p196
I1
sS'revvideooverlay'
p197
I11
sS'nameuri'
p198
I1
sS'byadsByGoogleTextAds'
p199
I1
sS'hreforbfooter'
p200
I1
sS'windowrequire'
p201
I1
sS'classmoduletitle'
p202
I8
sS'mediaquotquotimgquotquothttpichefbbcicoukwwhp800cpsprodpb8F68production8672176386721570jpgquotquotimgalttextquotquotMohamed'
p203
I1
sS'functionpromo'
p204
I1
sS'classorbfootergreydiv'
p205
I1
sS'orbiconarrowspanali'
p206
I1
sS'ifadstestwindowlocationhref'
p207
I1
sS'navigationh2'
p208
I1
sS'hrefhttpwwwbbccomnewsworlduscanada34849891'
p209
I2
sS'Holy'
p210
I2
sS'setAssetPrefix'
p211
I1
sS'William'
p212
I1
sS'\xd8\xb1\xd9\x88\xd8\xb3'
p213
I1
sS'got'
p214
I1
sS'newly'
p215
I1
sS'hrefpersianworld201511151117u04parisattackers'
p216
I1
sS'removeExpiredexpiresvar'
p217
I1
sS'Metal'
p218
I3
sS'small'
p219
I2
sS'kgindexOfstux'
p220
I1
sS'classbbccomdisplaynone3E3Cscript3E'
p221
I3
sS'dirltr'
p222
I3
sS'datasrchttpichefbbcicoukwwhpwidthcpsprodpbB308production86723854indiachittoor46417112015png'
p223
I1
sS'nodeparentNodeinsertBeforegads'
p224
I1
sS'overrideswindowbbccookiesgetmatchcknsmandolinsetSegmentsifoverridesnullevaloverrides'
p225
I1
sS'idorbnavlinks'
p226
I1
sS'refugee'
p227
I1
sS'days'
p228
I3
sS'datasrchttpichefbbcicoukwwhpwidthcpsprodpb58ADproduction86710722rethinkroboticsbaxtergraybkgroundjpg'
p229
I1
sS'datasrchttpichefbbcicoukwwhpwidthcpsprodpb72F0production8644249286442489jpg'
p230
I1
sS'Swahili'
p231
I1
sS'classvideoviewport'
p232
I1
sS'wslanguagebn'
p233
I1
sS'downside'
p234
I1
sS'ididctaimage'
p235
I1
sS'idbbccommpumiddle1234'
p236
I1
sS'service'
p237
I28
sS'top'
p238
I1
sS'clock1httpstaticbbcicoukframeworksclock019sharedmodulesclock1'
p239
I1
sS'classweathersubmit'
p240
I1
sS'ocknstestcookieMathfloorMathrandom100000thisseto1ifthisgetindexOfo1goreturn'
p241
I1
sS'Desert'
p242
I1
sS'idCookieInstancehasCookie'
p243
I1
sS'datawwhpmoduleimages'
p244
I1
sS'bbcdotcomutils'
p245
I1
sS'classorbnavearth'
p246
I2
sS'hrefhttpwwwbbccomcapitalCapitala'
p247
I2
sS'feature2'
p248
I2
sS'feature1'
p249
I2
sS'altSearch'
p250
I2
sS'BBC'
p251
I10
sS'took'
p252
I1
sS'classtoplistheadingspan'
p253
I1
sS'moduleworldinpictures'
p254
I1
sS'eadocumentgecookiebgmatch'
p255
I1
sS'sundefinedskiftypeof'
p256
I1
sS'dataaltThe'
p257
I3
sS'bbcFlagpolesistats'
p258
I1
sS'planequotquotorigincodequotquotmcsquot'
p259
I1
sS'hrefnewsmagazine'
p260
I2
sS'ecknspolicymThu'
p261
I1
sS'hrefhttpwwwbbccomnewstechnology34842854'
p262
I2
sS'enabled'
p263
I1
sS'height1'
p264
I1
sS'bapplythisargumentsdeletePolicyfunctioniemisAllowedfunctionreturn'
p265
I1
sS'idbbccookiessettings'
p266
I1
sS'don\xe2\x80\x99t'
p267
I2
sS'Adele'
p268
I1
sS'hostmatchwwwsslmintteststagelivebbci'
p269
I1
sS'Sinhala'
p270
I1
sS'istatssetCounternamecounterName'
p271
I1
sS'idorbaccessibilityhelp'
p272
I1
sS'ran'
p273
I3
sS'srccdnoptimizelycomjs3531950243js'
p274
I1
sS'Breakpoints'
p275
I1
sS'tagdefaultFeatured'
p276
I1
sS'datasrchttpichefbbcicoukwwhpwidthcpsprodpb11275production86716207ayk9nktknrtwav3lyry60wm8mwuhwgodure4gagxyimbssqndmow0w6vgzwf9vozjtrzgfmpton7ewhocqvuurdm3rq7ifffwdoyzrvfcje8kui4b5fyusl00oqrvsemrvucgg4sclwsdl7fs8mxye5h9qqdtrdrwopb0wzsjpg'
p277
I1
sS'linksh2'
p278
I1
sS'seem'
p279
I2
sS'datasrchttpichefbbcicoukwwhpwidthcpsprodpbAD67production867193440301514191jpg'
p280
I1
sS'setSections'
p281
I1
sS'wslanguageta'
p282
I1
sS'classtoplistitemheadline'
p283
I8
sS'hrefhttpwwwbbccomtravelstory20151113thewinethatcomeswithaddedbite'
p284
I2
sS'responsible'
p285
I1
sS'wslanguagejp'
p286
I1
sS'hreflocalLocala'
p287
I2
sS'dataaltLe'
p288
I1
sS'wslanguagetr'
p289
I1
sS'coloursquotquotpidquotquotp038cclxquotquotsourcenamequotquotUKquotquotsourceurlquotquotnewsukquotquotcreatedquotquot20151117T2017530000quotquotupdatedquotquot20151117T2156290000quotquotorigincodequotquotcpsprodpbquotquotgeliconquotquotvideoquotquotsourceidquotquotvideosquotquotitemtypequotquotfeedquotquotallowadvertisingquottruequotdurationquotquotPT1Mquot'
p290
I1
sS'classtoplistitem'
p291
I13
sS'They'
p292
I2
sS'titleUkrainian'
p293
I1
sS'istatsinvoke'
p294
I1
sS'sabbccoukbbcbbcsnameSETCOUNTERpalrouteindexmlnamebarlesqueapptyperesponsivelanguageenGBmlversion0284palwebappwwhp'
p295
I1
sS'videoitem'
p296
I10
sS'wslanguageptBR'
p297
I1
sS'revweatherlink'
p298
I4
sS'Lucy'
p299
I1
sS'bbcdotcomslotAsyncmodulefeature3'
p300
I1
sS'entry'
p301
I2
sS'Whats'
p302
I3
sS'dataaltwhole'
p303
I1
sS'\xe0\xa6\xac\xe0\xa6\xbe\xe0\xa6\x82\xe0\xa6\xb2\xe0\xa6\xbe'
p304
I1
sS'hrefhttpwwwbbccomearthstory20151117isittruethatweaccidentallyswallowspiderswhenwesleep'
p305
I2
sS'm'
p306
I2
sS'\xd9\xbe\xd8\xa7\xd8\xb1\xdb\x8c\xd8\xb3'
p307
I2
sS'coloursimg'
p308
I1
sS'revregionalnewsoverlay'
p309
I4
sS'consumer'
p310
I1
sS'came'
p311
I2
sS'taghealth'
p312
I1
sS'bomb'
p313
I2
sS'functionundefinedifwindowbbcwindowbbcvar'
p314
I1
sS'Technologya'
p315
I2
sS'\xd8\xad\xd9\x85\xd9\x84\xd9\x88\xda\xba'
p316
I2
sS'Flash'
p317
I1
sS'istatsaddLabelspalrouteindexmlnamebarlesqueapptyperesponsivelanguageenGBmlversion0284palwebappwwhp'
p318
I1
sS'\xe6\x97\xa5\xe6\x9c\xac\xe8\xaa\x9e'
p319
I1
sS'revworldinpictures2headline'
p320
I1
sS'asia'
p321
I1
sS'Rowlattspan'
p322
I1
sS'European'
p323
I3
sS'layout'
p324
I1
sS'RegExpOBJECTLITERALgreturn'
p325
I1
sS'hrefuzbek'
p326
I1
sS'theme'
p327
I4
sS'hrefhttpwwwbbccouknewsbeatarticles34851595'
p328
I2
sS'BBCspan'
p329
I2
sS'obreturn'
p330
I1
sS'eventmixinpromoManager'
p331
I1
sS'ErrorInvalid'
p332
I6
sS'\xd8\xaf\xd9\x88\xd9\x84\xd8\xaa\xd9\x90'
p333
I2
sS'Marseillaise'
p334
I8
sS'propertyfbpageid'
p335
I1
sS'exports'
p336
I3
sS'Netherlands'
p337
I2
sS'classorbnavcapital'
p338
I2
sS'hrefnewstechnology34853444'
p339
I2
sS'de'
p340
I2
sS'watch'
p341
I3
sS'\xd9\x81\xd8\xb6\xd8\xa7\xd8\xa6\xdb\x8c'
p342
I2
sS'coast'
p343
I4
sS'despite'
p344
I1
sS'revworldinpictures1overlay'
p345
I1
sS'learned'
p346
I2
sS'hall'
p347
I2
sS'bbcdotcomdatac'
p348
I1
sS'bbcdotcomdatab'
p349
I1
sS'bbcdotcomdataa'
p350
I1
sS'classtoplistitembullet2span'
p351
I1
sS'idplayer'
p352
I1
sS'shots'
p353
I3
sS'revprimaryspecialfeaturesheader'
p354
I2
sS'advertnativediv'
p355
I1
sS'Languages'
p356
I1
sS'Bataclanquotquoturlquotquotnewsworldeurope34852948quotquotsummaryquotquotThe'
p357
I1
sS'srchttpstaticbbcicoukframeworksbarlesque29313orb4scriptorbapiminjs'
p358
I1
sS'arguments0objectsnecessarytruevar'
p359
I1
sS'altBBC'
p360
I1
sS'hrefhttpwwwbbccomautosAutosa'
p361
I2
sS'Recommended'
p362
I1
sS'Spanish'
p363
I1
sS'tabindex1'
p364
I50
sS'best'
p365
I1
sS'Indonesian'
p366
I1
sS'01'
p367
I1
sS'acceptcharsetutf8'
p368
I1
sS'\xe0\xae\xa4\xe0\xae\xae\xe0\xae\xbf\xe0\xae\xb4\xe0\xaf\x8d'
p369
I1
sS'functionifbbccookiesshowPromptvar'
p370
I1
sS'vendorunderscoreunderscore'
p371
I1
sS'datasrchttpichefbbcicoukwwhpwidthibroadcastimageslivep037znp037zn6rjpg'
p372
I1
sS'Charlie'
p373
I1
sS'classwslanguages'
p374
I1
sS'approach'
p375
I1
sS'ire'
p376
I2
sS'Triomphe'
p377
I2
sS'we'
p378
I7
sS'srchttpichefbbcicoukwwhp144cpsprodpbAD67production867193440301514191jpg'
p379
I1
sS'extend'
p380
I1
sS'rolled'
p381
I1
sS'domReadyfunction'
p382
I1
sS'idorbheader'
p383
I1
sS'screenheight'
p384
I2
sS's0vzlengthsvsrzsforvar'
p385
I1
sS'nullfunction'
p386
I1
sS'downgrade'
p387
I1
sS'downgraded'
p388
I3
sS'protect'
p389
I1
sS'hrefhttpwwwbbccoukalba'
p390
I1
sS'classorbnavdesktop'
p391
I1
sS'orbfigad'
p392
I2
sS'country'
p393
I1
sS'against'
p394
I1
sS'players'
p395
I1
sS'hrefhttpwwwbbccomnewsworldeurope34839403'
p396
I2
sS'advertmpudiv'
p397
I1
sS'requests'
p398
I1
sS'orbfigap'
p399
I1
sS'propertywwhpedition'
p400
I1
sS'incessant'
p401
I1
sS'hrefnewsworldeurope34852916'
p402
I2
sS'Ireland'
p403
I1
sS'hrefhttpstaticbbcicoukwwhp1890responsiveimgappletouchappletouch180jpg'
p404
I1
sS'hrefurduworld201511151117russiastepsupisattackszz'
p405
I1
sS'datasrchttpichefbbcicoukwwhpwidthibroadcastimageslivep03877p038778jjpg'
p406
I1
sS'Lesbos'
p407
I1
sS'speak'
p408
I5
sS'classwsheadlines'
p409
I1
sS'classforecastdayFrih3'
p410
I1
sS'dataaltBand'
p411
I1
sS'union'
p412
I1
sS'Southern'
p413
I3
sS'three'
p414
I2
sS'been'
p415
I4
sS'advert'
p416
I1
sS'nownew'
p417
I1
sS'KIRUNDI'
p418
I1
sS'stadium'
p419
I4
sS'deportations'
p420
I2
sS'website'
p421
I3
sS'orbnavblocks'
p422
I1
sS'life'
p423
I4
sS'datacategorylatest'
p424
I4
sS'hrefweatherWeathera'
p425
I2
sS'altPolice'
p426
I1
sS'dapplythisargumentsshowPromptfunctionvar'
p427
I1
sS'datasrchttpichefbbcicoukwwhpwidthcpsprodpb28E4production86686401deathdandy71bbcjpg'
p428
I1
sS'hrefsomali'
p429
I1
sS'attacker'
p430
I2
sS'dataaltCredit'
p431
I3
sS'hrefhttpwwwbbccomnewsbusiness11428889'
p432
I1
sS'child'
p433
I2
sS'revworldinpictures4source'
p434
I1
sS'Jews'
p435
I2
sS'u00c2u00a340m'
p436
I1
sS'save'
p437
I3
sS'onSuccess'
p438
I1
sS'n'
p439
I1
sS'titleIndonesian'
p440
I1
sS'near'
p441
I1
sS'revregionalnewssource'
p442
I4
sS'typeof'
p443
I11
sS'width17'
p444
I1
sS'width18'
p445
I2
sS'classdelayedimageload'
p446
I58
sS'k'
p447
I1
sS'mastermindquotquoturlquotquotnewsworldeurope34853581quotquotsummaryquotquotFrench'
p448
I1
sS'seven'
p449
I3
sS'\xd8\xa7\xd8\xb1\xd8\xaf\xd9\x88'
p450
I1
sS'modulenewssport'
p451
I1
sS'id'
p452
I1
sS'idorbsearchform'
p453
I1
sS'libmodulebasehttpstaticbbcicoukwwhp1890moduleslibmodulebase'
p454
I1
sS'make'
p455
I3
sS'httptpsbbccomwwscriptsdatax3Cscript'
p456
I1
sS'masterminded'
p457
I1
sS'jcookieindexOfstux'
p458
I1
sS'damages'
p459
I2
sS'datasrchttpichefbbcicoukwwhpwidthcpsprodpbE60Cproduction86729885humanbrainjpg'
p460
I1
sS'President'
p461
I1
sS'revmorebbcheadline'
p462
I7
sS'relappletouchicon'
p463
I1
sS'winner0rollingExpiredaysFromNowROLLINGPERIODDAYSforvar'
p464
I1
sS'hrefnewsbusiness34845780'
p465
I1
sS'bbcdotcomflaga'
p466
I1
sS'Rethink'
p467
I2
sS'othisisConfirmedthispolicyRequiresRefreshwindowctaenabledthiscookiesEnabledwindowbbccookiesdisablereturnwindoworbwindoworbfigowindoworbfignowindoworbfigckobbccookiesgetPolicybbccookiesreadPolicyfunction'
p468
I1
sS'rain'
p469
I2
sS'characters'
p470
I1
sS'ashore'
p471
I2
sS'srchttpstaticbbcicoukframeworksbarlesque29313orb4scriptvendoredrjs'
p472
I1
sS'revhero6headline'
p473
I1
sS'opsplitqdoqunshiftojoinopopwhileq0fcachepqreturn'
p474
I1
sS'1970'
p475
I1
sS'functionvar'
p476
I1
sS'bbcdotcomslotAsyncmodulefeature2'
p477
I1
sS'bbcdotcomslotAsyncmodulefeature1'
p478
I1
sS'bbcdotcomslotAsyncmodulefeature4'
p479
I1
sS'datasrchttpichefbbcicoukwwhpwidthibroadcastimageslivep037zbp037zb05jpg'
p480
I1
sS'just'
p481
I1
sS'photo'
p482
I2
sS'videoitem9'
p483
I1
sS'aside'
p484
I2
sS'datawwhpmodulevideo'
p485
I1
sS'dataaltAn'
p486
I1
sS'human'
p487
I2
sS'yet'
p488
I1
sS'modulelanguages'
p489
I1
sS'datasrchttpichefbbcicoukwwhpwidthcpsprodpb11576production86703017chennai3jpg'
p490
I1
sS'27th'
p491
I1
sS'had'
p492
I2
sS'ifestatus'
p493
I1
sS'revworldinpictures4overlay'
p494
I1
sS'board'
p495
I2
sS'classorbnavtv'
p496
I2
sS'has'
p497
I5
sS'modulesheaderhttpstaticbbcicoukwwhp1890modulesmodulesheader'
p498
I1
sS'999emimg'
p499
I1
sS'Zayn'
p500
I3
sS'revhero1source'
p501
I1
sS'classorbpanel'
p502
I1
sS'hrefvietnameseworld201511151117russianplaneterroract'
p503
I1
sS'possible'
p504
I1
sS'Trump'
p505
I1
sS'\xd8\xaf\xdb\x8c\xd8\xaf\xd9\x87'
p506
I2
sS'wslanguageuk'
p507
I1
sS'Robotics'
p508
I1
sS'html'
p509
I1
sS'crematorium'
p510
I1
sS'wslanguageur'
p511
I1
sS'Arc'
p512
I2
sS'hrefnewsworldasiaindia34830452'
p513
I2
sS'medialistitem3'
p514
I7
sS'night'
p515
I4
sS'wslanguageuz'
p516
I1
sS'security'
p517
I4
sS'Lanka'
p518
I3
sS'Prince'
p519
I2
sS'classwsradio'
p520
I1
sS'www'
p521
I1
sS'people'
p522
I6
sS'windowistats'
p523
I1
sS'hrefmakeitdigitalMake'
p524
I2
sS'dead'
p525
I7
sS'orbnavpriblack'
p526
I1
sS'escape'
p527
I1
sS'thissegmentfunction'
p528
I1
sS'revsecondaryspecialfeaturessource'
p529
I2
sS'hrefhttpwwwbbccomnewsworldasiaindia34773767'
p530
I1
sS'appinitwindow'
p531
I1
sS'Marseillaisequotquoturlquotquotnewsuk34852296quotquotsummaryquotquotFootball'
p532
I1
sS'revworldinpictures3headline'
p533
I1
sS'divdiv'
p534
I59
sS'hrefhttpwwwbbccoukurdu'
p535
I1
sS'who'
p536
I7
sS'titleSpanish'
p537
I1
sS'titleKirundi'
p538
I2
sS'videonoslick'
p539
I1
sS'\xd9\xbe\xda\x9a\xd8\xaa\xd9\x88'
p540
I1
sS'endDatefunction'
p541
I1
sS'typetextcssbbccomdisplaynonedisplaynonestyle'
p542
I1
sS'classorbnavsport'
p543
I2
sS'attacks'
p544
I8
sS'desktopuitabshttpstaticbbcicoukwwhp1890modulesdesktopuitabs'
p545
I1
sS'Argument'
p546
I5
sS'ensure'
p547
I2
sS'Cameron'
p548
I1
sS'islands'
p549
I1
sS'Warren'
p550
I2
sS'hrefhttpwwwbbccomnewsentertainmentandarts'
p551
I1
sS'Blacks'
p552
I2
sS'presence'
p553
I2
sS'toplistitem8'
p554
I1
sS'lies'
p555
I1
sS'ccharAt0'
p556
I1
sS'ccharAt1'
p557
I1
sS'ccharAt2'
p558
I1
sS'toplistitem1'
p559
I2
sS'toplistitem2'
p560
I2
sS'toplistitem3'
p561
I2
sS'toplistitem4'
p562
I2
sS'toplistitem5'
p563
I2
sS'toplistitem6'
p564
I1
sS'toplistitem7'
p565
I1
sS'hrefhttpwwwbbccomnewsworlduscanada34824987'
p566
I1
sS'hrefhttpwwwbbccomnewsworld34830628'
p567
I1
sS'waits'
p568
I1
sS'DateDEFAULTSTARTgetTimethisendTsoptsendundefinednew'
p569
I1
sS'daysFromNownvar'
p570
I1
sS'fight'
p571
I1
sS'way'
p572
I2
sS'bullethole'
p573
I5
sS'happy'
p574
I1
sS'head'
p575
I1
sS'form'
p576
I4
sS'Dadd'
p577
I4
sS'VI\xe1\xbb\x86T'
p578
I1
sS'autocompleteoff'
p579
I1
sS'taken'
p580
I1
sS'revhero5overlay'
p581
I1
sS'screenWidthAndHeight'
p582
I3
sS'windowbbcFlagpolesistats'
p583
I1
sS'224'
p584
I1
sS'true'
p585
I3
sS'BBClabel'
p586
I1
sS'reset'
p587
I1
sS'classweatherresultsul'
p588
I1
sS'orbnavlinks'
p589
I1
sS'falsesetfunctionoreturn'
p590
I1
sS'revworldinpictures5source'
p591
I1
sS'meters'
p592
I2
sS'Malikimg'
p593
I1
sS'altJonah'
p594
I1
sS'passenger'
p595
I4
sS'shim'
p596
I1
sS'classforecastlow25degCp'
p597
I4
sS'Carson'
p598
I1
sS'held'
p599
I1
sS'Wembley'
p600
I5
sS'La'
p601
I11
sS'altChina'
p602
I1
sS'revhero2overlay'
p603
I1
sS'getAssetPrefix'
p604
I1
sS'classvideotablink'
p605
I3
sS'decodeURIComponentcsubstringnameEqlengthclengthreturn'
p606
I1
sS'DategetTime10006010toGMTStringsetFigfunctionabfunctionvar'
p607
I1
sS'test'
p608
I1
sS'classwsradioprogrammetitleThe'
p609
I1
sS'Abaaoudquotquotpidquotquotp038cglhquotquotsourcenamequotquotEuropequotquotsourceurlquotquotnewsworldeuropequotquotcreatedquotquot20151118T0023170000quotquotupdatedquotquot20151118T0023170000quotquotorigincodequotquotcpsprodpbquotquotgeliconquotquotvideoquotquotsourceidquotquotvideosquotquotitemtypequotquotfeedquot'
p610
I1
sS'ns'
p611
I1
sS'altThe'
p612
I3
sS'570Simg'
p613
I1
sS'idbbccomwallpaper'
p614
I1
sS'revworldinpictures2source'
p615
I1
sS'dies'
p616
I3
sS'statsProvider'
p617
I2
sS'expiresnew'
p618
I1
sS'responsiveasia'
p619
I1
sS'revworldservicelink'
p620
I1
sS'classorbnavlocal'
p621
I2
sS'Chittoor'
p622
I1
sS'authorities'
p623
I2
sS'googletagcmdpushfunction'
p624
I2
sS'datasrchttpichefbbcicoukwwhpwidthcpsprodpb2DC0production86721711mmftbeuroirelandqualifydressingroomv2jpg'
p625
I1
sS'hrefswahili'
p626
I1
sS'assume'
p627
I1
sS'bottom'
p628
I1
sS'datasrchttpichefbbcicoukwwhpwidthibroadcastimageslivep02ywfp02ywfpmjpg'
p629
I1
sS'jacket'
p630
I2
sS'time'
p631
I1
sS'serious'
p632
I1
sS'icvalidateCookieNamenamefori0icalengthiccaiifcindexOfnameEq0return'
p633
I1
sS'offquotquotimgalttextquotquotChina'
p634
I1
sS'focus'
p635
I1
sS'moduledate'
p636
I1
sS'bbcdotcomconfigsetVersion03343'
p637
I1
sS'hrefsinhala'
p638
I1
sS'Republic'
p639
I1
sS'classmedialistitem'
p640
I35
sS'Chennai'
p641
I5
sS'dataaltimg'
p642
I8
sS'altFrancois'
p643
I1
sS'toplistitemranked'
p644
I5
sS'1943'
p645
I1
sS'classmedialink'
p646
I50
sS'Dave'
p647
I2
sS'environment'
p648
I1
sS'0'
p649
I8
sS'videospan'
p650
I1
sS'wslanguagevi'
p651
I1
sS'srchttpstaticbbcicoukframeworksbbccookies0611scriptbbccookiesjsscriptifwindowbbccookiesflagONbbccookiesacceptsAllwindowbbccookiesdisabledocumentwriteon'
p652
I1
sS'dataaltSeveral'
p653
I1
sS'nsuxcDomain'
p654
I1
sS'hrefnewsuk34852296'
p655
I2
sS'string'
p656
I1
sS'picturesa'
p657
I1
sS'revhero6overlay'
p658
I1
sS'libutilhttpstaticbbcicoukwwhp1890moduleslibutil'
p659
I1
sS'pickedmin0maxsegmentslength1iftypeof'
p660
I1
sS'Robbinsspan'
p661
I1
sS'level'
p662
I2
sS'fragile'
p663
I1
sS'brother'
p664
I4
sS'modulesimageshttpstaticbbcicoukwwhp1890modulesmodulesimages'
p665
I1
sS'p'
p666
I73
sS'team'
p667
I2
sS'content228735667216'
p668
I1
sS'div'
p669
I526
sS'hrefsportSporta'
p670
I2
sS'Taj'
p671
I5
sS'languagesa'
p672
I1
sS'hrefnewsentertainmentandarts'
p673
I1
sS'says'
p674
I2
sS'hrefhttpwwwbbccomnewsNewsa'
p675
I2
sS'ididctastatusbar'
p676
I1
sS'hrefkyrgyz'
p677
I1
sS'titlePersian'
p678
I2
sS'bbcdotcomconfigsetAssetPrefixhttpstaticbbcicoukbbcdotcom03343'
p679
I1
sS'altBaxter'
p680
I1
sS'takeoff'
p681
I3
sS'Jane'
p682
I2
sS'rearing'
p683
I3
sS'hrefnewsworldeurope34841396'
p684
I2
sS'parguments0rarguments1ifpnecessaryrtruesbsprelseiftypeof'
p685
I1
sS'DateoptsstartgetTimenew'
p686
I1
sS'classlslanguageslink'
p687
I1
sS'nsux'
p688
I1
sS'hrefhttpwwwbbccomtravelstory20151113destinationsthataresomagicaltheyhardlyseemreal'
p689
I2
sS'sfstartpt'
p690
I1
sS'revhero5source'
p691
I1
sS'oqsSurveyManagerwindow'
p692
I1
sS'classorbhilightCopyright'
p693
I1
sS'classwsradiocontent'
p694
I1
sS'1234'
p695
I10
sS'altAbdelhamid'
p696
I1
sS'explosion'
p697
I1
sS'revhero3source'
p698
I1
sS'revsecondaryspecialfeaturesheadline'
p699
I2
sS'altA'
p700
I4
sS'screenshotsimg'
p701
I1
sS'English'
p702
I1
sS'Digitala'
p703
I2
sS'title\xe3\x82\xaa\xe3\x83\xa9\xe3\x83\xb3\xe3\x83\x89\xe4\xbb\x8f\xe5\xa4\xa7\xe7\xb5\xb1\xe9\xa0\x98\xe3\x80\x81IS\xe6\x89\x93\xe5\x80\x92\xe3\x81\xae\xe6\xb1\xba\xe6\x84\x8f\xe8\xa1\xa8\xe6\x98\x8e'
p704
I1
sS'DateqsetYearqgetFullYear1bbccookiessetejsdomainbbccoukpathexpiresqtoUTCStringbbccookiessetejsdomainbbccompathexpiresqtoUTCStringvar'
p705
I1
sS'change'
p706
I2
sS'fcachepvar'
p707
I1
sS'classwsheadlinelanguagelink'
p708
I4
sS'functionwindowfigwindowfigwindowfigmanagerincludefunctionaaawindowvar'
p709
I1
sS'hrefafrique'
p710
I1
sS'istatsaddLabelsbbchid'
p711
I1
sS'hrefhelpweblinks'
p712
I1
sS'dataaltDriving'
p713
I1
sS'titleNga'
p714
I1
sS'diagnosed'
p715
I1
sS'documentcookiegetCrumbfunctionoiforeturn'
p716
I1
sS'revnewsoverlay'
p717
I3
sS'hrefnewsworldasiaindia34843387'
p718
I2
sS'Uniona'
p719
I1
sS'emerge'
p720
I2
sS'nsreferrer'
p721
I1
sS'jquery1httpstaticbbcicoukframeworksjquery030sharedmodulesjquery172'
p722
I1
sS'When'
p723
I3
sS'hreftamil'
p724
I1
sS'icongallery'
p725
I5
sS'classvideotab'
p726
I3
sS'setVersion'
p727
I1
sS'translationsignedout'
p728
I1
sS'validateCookieNamenameifnamematch'
p729
I1
sS'nullreturn'
p730
I2
sS'DategetTimen6060241000return'
p731
I1
sS'getCssPrefix'
p732
I1
sS'istatsgetDefaultURL'
p733
I1
sS'visit'
p734
I2
sS'titleHindi'
p735
I1
sS'live'
p736
I1
sS'https'
p737
I3
sS'First'
p738
I2
sS'60toGMTString'
p739
I1
sS'roundup'
p740
I2
sS'October'
p741
I1
sS'tagsport'
p742
I4
sS'570S'
p743
I2
sS'adverts'
p744
I1
sS'requireorbasyncfooterpromo'
p745
I1
sS'Latest'
p746
I3
sS'Hardisonimg'
p747
I1
sS'German'
p748
I3
sS'car'
p749
I1
sS'altpnoscript'
p750
I1
sS'hrefnewsworld34843276'
p751
I2
sS'hrefnewsworldusandcanada'
p752
I1
sS'modulesmediahttpstaticbbcicoukwwhp1890modulesmodulesmedia'
p753
I1
sS'\xd8\xaa\xd8\xb5\xd8\xa7\xd9\x88\xdb\x8c\xd8\xb1'
p754
I2
sS'following'
p755
I3
sS'Our'
p756
I1
sS'documentcookieoexpiresmfunction'
p757
I1
sS'winlocation'
p758
I1
sS'typetext'
p759
I1
sS'\xc3\x82\xc2\xa340m'
p760
I2
sS'Vietnamese'
p761
I2
sS'Segments'
p762
I1
sS'hostmatchpalsandboxi'
p763
I1
sS'Dutch'
p764
I2
sS'modulesvideohttpstaticbbcicoukwwhp1890modulesmodulesvideo'
p765
I1
sS'occur'
p766
I1
sS'desktoputilsdatehttpstaticbbcicoukwwhp1890modulesdesktoputilsdate'
p767
I1
sS'hrefpashto'
p768
I1
sS'classmoduletitlenbsph2'
p769
I1
sS'classorbnavearthdotcom'
p770
I2
sS'wsheadlinepersian'
p771
I1
sS'dooms'
p772
I1
sS'blqe'
p773
I1
sS'brain'
p774
I2
sS'1'
p775
I20
sS'hrefzhongwensimp'
p776
I1
sS'idbbccommpu1234'
p777
I1
sS'DateqgetTimeosetMonthogetMonth1bbccookiessetbbccookiesPOLICYEXPIRYCOOKIENAMEqgetTimedomainbbccoukpathexpiresotoUTCStringbbccookiessetbbccookiesPOLICYEXPIRYCOOKIENAMEqgetTimedomainbbccompathexpiresotoUTCStringreturn'
p778
I1
sS'blqs'
p779
I1
sS'blqr'
p780
I1
sS'Why'
p781
I5
sS'blqv'
p782
I1
sS'map'
p783
I5
sS'dataindex8'
p784
I1
sS'nameviewport'
p785
I1
sS'may'
p786
I1
sS'dataindex7'
p787
I1
sS'dataindex4'
p788
I1
sS'dataindex5'
p789
I1
sS'southern'
p790
I1
sS'dataindex3'
p791
I1
sS'dataindex0'
p792
I1
sS'dataindex1'
p793
I1
sS'modulespecialfeatures'
p794
I2
sS'date'
p795
I2
sS'datavideoquotcontenttypequotquotvideoquotquotnumquotquot10quotquottypequotquotMAPquotquottitlequotquotSuspects'
p796
I1
sS'heroes'
p797
I2
sS'data'
p798
I1
sS'so'
p799
I1
sS'themes0'
p800
I1
sS'revhero2headline'
p801
I1
sS'titleJapanese'
p802
I2
sS'cute'
p803
I2
sS'shield'
p804
I5
sS'classwslanguage'
p805
I28
sS'threatre'
p806
I2
sS'explainedquotquoturlquotquotnewsworldeurope34852916quotquotsummaryquotquotFrance'
p807
I1
sS'Jan'
p808
I1
sS'hrefhttpssslbbccomidstatus'
p809
I1
sS'httpssslbbccom'
p810
I1
sS'1943img'
p811
I1
sS'contentasia'
p812
I1
sS'shake'
p813
I1
sS'bbccouknavpromocard'
p814
I1
sS'datasrchttpichefbbcicoukwwhpwidthcpsprodpb9ADAproduction86624693kalyanilodhiathelanguageoffaithjpg'
p815
I1
sS'Sheen'
p816
I2
sS'1ifthisstartTsthisendTsthrow'
p817
I1
sS'titleSwahili'
p818
I1
sS'police'
p819
I2
sS'googletagdisplaybbccominterstitial'
p820
I1
sS'makeUrl'
p821
I1
sS'bbcdotcomconfigisActiveanalytics'
p822
I1
sS'idorbnavmorea'
p823
I1
sS'Helpa'
p824
I1
sS'hrefhttpwwwbbccouknewsNewsa'
p825
I2
sS'tagfeature'
p826
I1
sS'fpiffcachepreturn'
p827
I1
sS'policy'
p828
I1
sS'altDidier'
p829
I1
sS'hrefguidanceParental'
p830
I1
sS'wslanguagees'
p831
I1
sS'answer'
p832
I3
sS'arriving'
p833
I1
sS'now'
p834
I1
sS'classwsradioicon'
p835
I1
sS'killed'
p836
I4
sS'nor'
p837
I1
sS'Soutik'
p838
I1
sS'name'
p839
I1
sS'settings'
p840
I2
sS'Abdeslam'
p841
I2
sS'dataaltWhen'
p842
I1
sS'Yefeiimg'
p843
I1
sS'contentA09EF0BF1FC5CDBB37D921CBC3776943'
p844
I1
sS'Watched'
p845
I1
sS'Airbus'
p846
I1
sS'domain'
p847
I1
sS'fired'
p848
I1
sS'bump3'
p849
I1
sS'Eartha'
p850
I1
sS'esetAttributelanguage'
p851
I1
sS'swfobject2httpstaticbbcicoukframeworksswfobject0110sharedmodulesswfobject2'
p852
I1
sS'year'
p853
I2
sS'happen'
p854
I3
sS'neighbourhood'
p855
I2
sS'relive'
p856
I2
sS'classorbnavnews'
p857
I2
sS'idorbsearchsuggid'
p858
I1
sS'csspgelui1overlayhttpstaticbbcicoukframeworksgelui0913sharedmodulesgelui1overlaycss'
p859
I1
sS'altWembley'
p860
I1
sS'revnewsheadline'
p861
I3
sS'width1'
p862
I1
sS'blq'
p863
I1
sS'hrefhttpwwwbbccomearthEartha'
p864
I4
sS'cyclonic'
p865
I2
sS'shows'
p866
I3
sS'END'
p867
I1
sS'monster'
p868
I1
sS'siege'
p869
I2
sS'tagculture'
p870
I1
sS'dataaltZayn'
p871
I1
sS'datacategoryrecommended'
p872
I6
sS'titlePortuguese'
p873
I1
sS'joreturnoads10opersonalisation10operformance10function'
p874
I1
sS'orb'
p875
I2
sS'jlocation'
p876
I1
sS'wsheadlinejapanese'
p877
I1
sS'forecast'
p878
I4
sS'Sign'
p879
I1
sS'hrefukrainian'
p880
I1
sS'hrefnewsentertainmentarts34821079'
p881
I2
sS'separator'
p882
I1
sS'srchttpichefbbcicoukwwhp144cpsprodpbD2F3production8673004586730044jpg'
p883
I1
sS'hrefnewsinpictures34807480'
p884
I2
sS'Datewinnernew'
p885
I1
sS'first'
p886
I5
sS'Brazil'
p887
I1
sS'classtoplistitemlink'
p888
I13
sS'orbfooterpromofailed'
p889
I1
sS'datasrchttpichefbbcicoukwwhpwidthcpsprodpbD2DFproduction8673893586738397jpg'
p890
I1
sS'bbcmc'
p891
I1
sS'oqsSurveyManagerw'
p892
I1
sS'Asia'
p893
I1
sS'closureh3'
p894
I1
sS'Black'
p895
I2
sS'Syria'
p896
I2
sS'throwIllegal'
p897
I1
sS'hrefnewsinpictures34770680'
p898
I2
sS'city'
p899
I3
sS'given'
p900
I1
sS'orbfig'
p901
I2
sS'bite'
p902
I2
sS'bbcdotcomconfigisActivecontinuousPlay'
p903
I1
sS'Such'
p904
I1
sS'classquotorbnavthemedynamicquot'
p905
I1
sS'national'
p906
I2
sS'lens'
p907
I2
sS'altSahara'
p908
I1
sS'Patrick'
p909
I2
sS'esetAttributetype'
p910
I1
sS'q0uwlengthquqxwqyotrdomainrxpathxpexpirespbbccookiessetytruewindowbbccookiesPOLICYREFRESHDATEMILLISnew'
p911
I1
sS'istats1'
p912
I1
sS'iotpvar'
p913
I1
sS'hrefhttpwwwbbccomautos'
p914
I1
sS'copy'
p915
I1
sS'than'
p916
I3
sS'Seven'
p917
I2
sS'styleposition'
p918
I1
sS'15'
p919
I1
sS'17'
p920
I2
sS'require'
p921
I5
sS'endDateendDatenew'
p922
I1
sS'hrefnewshealth34831206'
p923
I2
sS'datasrchttpichefbbcicoukwwhpwidthibroadcastimageslivep0387dp0387dqmjpg'
p924
I1
sS'linkinga'
p925
I1
sS'dataaltmapimg'
p926
I1
sS'orbnavid'
p927
I1
sS'were'
p928
I3
sS'screenwidth'
p929
I2
sS'browser'
p930
I1
sS'Court'
p931
I1
sS'isAnalyticsEnabled'
p932
I1
sS'datasrchttpichefbbcicoukwwhpwidthcpsprodpb8798production86721743sinaicrashepajpg'
p933
I1
sS'idgnlAdsEnabled'
p934
I1
sS'translationsignedin'
p935
I1
sS'say'
p936
I3
sS'alt2013'
p937
I1
sS'hrefsportrugbyunion34853536'
p938
I2
sS'dataaltEagles'
p939
I1
sS'TI\xe1\xba\xbeNG'
p940
I1
sS'any'
p941
I2
sS'Sitea'
p942
I1
sS'Do'
p943
I4
sS'flagimg'
p944
I1
sS'documentcookieindexOfexdp'
p945
I1
sS'Jewish'
p946
I2
sS'wslanguagesw'
p947
I1
sS'mapidctastatusbar'
p948
I1
sS'bbcdotcomslotAsyncparallax'
p949
I1
sS'hrefnewsworldeurope'
p950
I12
sS'reveditorspicksheadline'
p951
I7
sS'Rugby'
p952
I1
sS'track'
p953
I2
sS'classws'
p954
I1
sS'idbbccominterstitial'
p955
I1
sS'datasrchttpichefbbcicoukwwhpwidthcpsprodpb4918production8672178186721779jpg'
p956
I1
sS'Healtha'
p957
I1
sS'assault'
p958
I5
sS'ampamp'
p959
I1
sS'bbcdotcominit'
p960
I1
sS'promomanagerOverride'
p961
I1
sS'icon'
p962
I18
sS'Portuguese'
p963
I1
sS'virtualSite'
p964
I2
sS'000000'
p965
I1
sS'\xd9\x85\xdb\x8c\xda\xba'
p966
I2
sS'datacategorymostwatched'
p967
I3
sS'idorbjsscript'
p968
I1
sS'hreflangengb'
p969
I1
sS'hrefhttpwwwbbccouknewsliveentertainmentarts34740961'
p970
I2
sS'noscriptp'
p971
I1
sS'cobra'
p972
I3
sS'shot'
p973
I3
sS'show'
p974
I2
sS'thatmakeUrllight'
p975
I1
sS'titleSinhala'
p976
I1
sS'Jonah'
p977
I1
sS'adFormatstandardadKeywordadModesmartadsEnabledtrueappAnalyticsSectionsasyncEnabledtruedisableInitialLoadfalseadvertInfoPageUrlhttpwwwbbccoukfaqsonlineadvertsgeneraladvertisementTextAdvertisementanalyticsEnabledtrueappNamewwhpassetPrefixhttpstaticbbcicoukbbcdotcom03343continuousPlayEnabledfalsecustomAdParamscustomStatsParamsheadlineidinAssociationWithTextin'
p978
I1
sS'fifth'
p979
I1
sS'We'
p980
I2
sS'altMohamed'
p981
I1
sS'titleBurmese'
p982
I1
sS'only'
p983
I2
sS'Marseillaiseimg'
p984
I2
sS'idorbpaneltemplateCDATA'
p985
I1
sS'get'
p986
I1
sS'contentwidthdevicewidth'
p987
I1
sS'ostrstrifvalidateSerialisationstrthrowInvalid'
p988
I1
sS'documentcreateElementscript'
p989
I2
sS'Helpali'
p990
I1
sS'ssl'
p991
I1
sS'Magazine'
p992
I1
sS'datawwhpmoduleweather'
p993
I1
sS'srchttpichefbbcicoukwwhp144cpsprodpb4B9Cproduction86665391lesbosjpg'
p994
I1
sS'altSeveral'
p995
I1
sS'\xd8\xb9\xd8\xb1\xd8\xa8\xd9\x8a'
p996
I1
sS'altDr'
p997
I1
sS'hrefmundo'
p998
I1
sS'ariahiddentruediv'
p999
I10
sS'revsportheader'
p1000
I1
sS'mapidctaidCookie'
p1001
I1
sS'bbcdotcomdataads'
p1002
I6
sS'altEagles'
p1003
I1
sS'floods'
p1004
I2
sS'dataaltNazi'
p1005
I1
sS'celebrate'
p1006
I5
sS'mediaicon'
p1007
I17
sS'dataaltPoliceimg'
p1008
I1
sS'wdocumentwritescript'
p1009
I1
sS'hrefurdu'
p1010
I1
sS'where'
p1011
I2
sS'inside'
p1012
I8
sS'reveals'
p1013
I2
sS'vendorcookiemonstercookiemonster'
p1014
I1
sS'concert'
p1015
I2
sS'sfasyncconfigregion'
p1016
I1
sS'\xe0\xa4\xb9\xe0\xa4\xbf\xe0\xa4\xa8\xe0\xa5\x8d\xe0\xa4\xa6\xe0\xa5\x80'
p1017
I1
sS'hrefjapanese34840723'
p1018
I1
sS'httpwwwbbccom'
p1019
I1
sS'revnewsheader'
p1020
I1
sS'suspects'
p1021
I1
sS'promoManager'
p1022
I3
sS'dataaltSketch'
p1023
I1
sS'\xd9\x85\xd9\x87\xd8\xa7\xd8\xac\xd9\x85'
p1024
I1
sS'thisisEnabledwindowbbcMandolinStorageprototypegetItemfunctionkeyvar'
p1025
I1
sS'sites'
p1026
I1
sS'label'
p1027
I1
sS'colours'
p1028
I3
sS'hrefazeri'
p1029
I1
sS'between'
p1030
I2
sS'hrefhttpwwwbbccomnewsbusiness32224205'
p1031
I1
sS'Thai'
p1032
I2
sS'medialistfixedheight'
p1033
I6
sS'classvideotabs'
p1034
I1
sS'CountryquotquotsourceurlquotquotnewsenglandbirminghamandblackcountryquotquotsummaryquotquotThe'
p1035
I1
sS'parent'
p1036
I1
sS'classforecasthigh29degCp'
p1037
I2
sS'killing'
p1038
I1
sS'blame'
p1039
I2
sS'Burmese'
p1040
I1
sS'brainimg'
p1041
I1
sS'propertyfbadmins'
p1042
I1
sS'altSupposedly'
p1043
I1
sS'reaction'
p1044
I1
sS'idvideo'
p1045
I1
sS'rugby'
p1046
I1
sS'region'
p1047
I3
sS'Devprayagimg'
p1048
I1
sS'ariahiddentruespan'
p1049
I17
sS'hrefnatureNaturea'
p1050
I2
sS'datasrchttpichefbbcicoukwwhpwidthibroadcastimageslivep02z7pp02z7pxljpg'
p1051
I1
sS'wslanguagefr'
p1052
I1
sS'bbcdotcom'
p1053
I2
sS'deported'
p1054
I1
sS'among'
p1055
I1
sS'Death'
p1056
I6
sS'\xd0\x9a\xd1\x8b\xd1\x80\xd0\xb3\xd1\x8b\xd0\xb7'
p1057
I1
sS'concernsquotquotimgquotquothttpichefbbcicoukwwhp800cpsprodpbD2DFproduction8673893586738397jpgquotquotimgalttextquotquotDutch'
p1058
I1
sS'pop'
p1059
I1
sS'60'
p1060
I1
sS'timestamp27thOct'
p1061
I2
sS'classmodulead'
p1062
I1
sS'titleAzeri'
p1063
I1
sS'boat'
p1064
I2
sS'Assembly'
p1065
I2
sS'now\xe2\x80\x99'
p1066
I2
sS'Hollandeimg'
p1067
I1
sS'srcsabbccoukbbcbbcsnameSETCOUNTERamppalrouteindexampmlnamebarlesqueampapptyperesponsiveamplanguageenGBampmlversion0284amppalwebappwwhpampblqjsenabled0ampblqs4dampblqr35ampblqvdefaultampblqepal'
p1068
I1
sS'classorbnavarts'
p1069
I2
sS'hardly'
p1070
I2
sS'acachepvar'
p1071
I1
sS'classvideoitems'
p1072
I1
sS'sfasyncconfigtitle'
p1073
I1
sS'DateoptssignupEndgetTimethisendTsthissegmentnulliftypeof'
p1074
I1
sS'aircraftquotquotorigincodequotquotcpsprodpbquot'
p1075
I1
sS'those'
p1076
I3
sS'classweatherforecasts'
p1077
I1
sS'istatsTrackingUrlmatchnamei1'
p1078
I1
sS'nsuxcPath'
p1079
I1
sS'altBand'
p1080
I1
sS'DateoptsendgetTimedaysFromNowROLLINGPERIODDAYSthissignupEndTsoptssignupEndundefinednew'
p1081
I1
sS'datasrchttpichefbbcicoukwwhpwidthcpsprodpb2F52production8674112186741120jpg'
p1082
I2
sS'Sangam'
p1083
I2
sS'bbcdotcomconfiginitbbcdotcomConfig'
p1084
I1
sS'Indiaimg'
p1085
I1
sS'exist'
p1086
I1
sS'typetexthtml'
p1087
I1
sS'classorbnav'
p1088
I1
sS'classweather'
p1089
I1
sS'cknsorbfigifbgindexOfcknsorbnofig11thissetFigano1elseifbbthisdeserialisedecodeURIComponentRegExp1thissetFigabewritescript'
p1090
I1
sS'utils'
p1091
I1
sS'Travela'
p1092
I3
sS'Somali'
p1093
I1
sS'Override'
p1094
I1
sS'wslanguagefa'
p1095
I1
sS'revhero5headline'
p1096
I1
sS'Germanys'
p1097
I2
sS'proto'
p1098
I2
sS'pay'
p1099
I3
sS'surveillance'
p1100
I1
sS'requiredifoptsrateundefinedoptsrate0optsrate1throw'
p1101
I1
sS'document'
p1102
I1
sS'pal'
p1103
I1
sS'events'
p1104
I3
sS'revhero3headline'
p1105
I1
sS'status'
p1106
I1
sS'Leros'
p1107
I1
sS'extended'
p1108
I1
sS'apphttpstaticbbcicoukwwhp1890modulesapp'
p1109
I1
sS'I'
p1110
I8
sS'IS'
p1111
I3
sS'hsiftypeof'
p1112
I1
sS'changing'
p1113
I1
sS'cartoon'
p1114
I2
sS'undefined'
p1115
I14
sS'Is'
p1116
I3
sS'It'
p1117
I2
sS'itemsifitemskeyendundefineditemskeyendexpiresIntthisstoreremoveItemkeyfunction'
p1118
I1
sS'without'
p1119
I1
sS'comes'
p1120
I5
sS'In'
p1121
I6
sS'bodies'
p1122
I2
sS'Lomu'
p1123
I4
sS'Service'
p1124
I1
sS'being'
p1125
I2
sS'datavideoquotcontenttypequotquotvideoquotquotnumquotquot10quotquottypequotquotMAPquotquottitlequotquotFrances'
p1126
I1
sS'ninth'
p1127
I3
sS'involvedquotquoturlquotquotnewsworldeurope34841396quotquotsummaryquotquotMohamed'
p1128
I1
sS'communities'
p1129
I1
sS'threatrequotquotpidquotquotp038chk7quotquotsourcenamequotquotEuropequotquotsourceurlquotquotnewsworldeuropequotquotcreatedquotquot20151117T2303370000quotquotupdatedquotquot20151117T2303370000quotquotorigincodequotquotcpsprodpbquotquotgeliconquotquotvideoquotquotsourceidquotquotvideosquotquotitemtypequotquotfeedquotquotdurationquotquotPT2M33Squotquotallowadvertisingquotfalse'
p1130
I1
sS'fanimg'
p1131
I1
sS'documentreferrer'
p1132
I1
sS'Belgian'
p1133
I1
sS'bbcdotcomslotAsyncnative'
p1134
I1
sS'Getty'
p1135
I5
sS'venuequotquotimgquotquothttpichefbbcicoukwwhp800cpsprodpbA94Eproduction86724334de17jpgquotquotimgalttextquotquotBand'
p1136
I1
sS'poised'
p1137
I3
sS'real'
p1138
I2
sS'classforecasthigh30degCp'
p1139
I2
sS'classorbnavtraveldotcom'
p1140
I2
sS'kills'
p1141
I2
sS'dark'
p1142
I1
sS'datasrchttpichefbbcicoukwwhpwidthibroadcastimageslivep038bxp038bxdtjpg'
p1143
I1
sS'gadsasync'
p1144
I1
sS'cnullacceptsAllfunctionvar'
p1145
I1
sS'meaning'
p1146
I2
sS'heightened'
p1147
I1
sS'Picksspan'
p1148
I1
sS'hrefwslanguages'
p1149
I1
sS'datasrchttpichefbbcicoukwwhpwidthibroadcastimageslivep02pp8p02pp8ssjpg'
p1150
I1
sS'testdocumentcookie'
p1151
I2
sS'recalls'
p1152
I1
sS'datavideoquotcontenttypequotquotvideoquotquotnumquotquot10quotquottypequotquotMAPquotquottitlequotquotParis'
p1153
I2
sS'Agra'
p1154
I2
sS'node'
p1155
I3
sS'classtoplistitembylineBy'
p1156
I8
sS'hrefhttpwwwbbccomearth'
p1157
I1
sS'b\xe1\xbb\x8b'
p1158
I2
sS'Entertainment'
p1159
I3
sS'trueisConfirmedfunctionreturn'
p1160
I1
sS'classfeaturetitle'
p1161
I4
sS'altIS'
p1162
I1
sS'bbcdotcomcurrencyProviderswrite'
p1163
I1
sS'revlanguagesheader'
p1164
I2
sS'dataassetpathhttpstaticbbcicoukframeworksbarlesque29313orb4'
p1165
I1
sS'promoManagerpromoLoaded'
p1166
I1
sS'New'
p1167
I1
sS'b\xe1\xbb\x91'
p1168
I2
sS'provided'
p1169
I2
sS'hrefhttpwwwbbccoukprogrammesp00fvhsf'
p1170
I1
sS'titleHausa'
p1171
I1
sS'1855'
p1172
I1
sS'stops'
p1173
I1
sS'apifacachepreturn'
p1174
I1
sS'titleTamil'
p1175
I1
sS'BBCh2'
p1176
I1
sS'datasrchttpichefbbcicoukwwhpwidthibroadcastimageslivep032j3p032j3cqjpg'
p1177
I1
sS'revcorrespondentslink'
p1178
I8
sS'classmediatitle'
p1179
I50
sS'football'
p1180
I3
sS'assembly'
p1181
I1
sS'\xe0\xa4\xa8\xe0\xa5\x87\xe0\xa4\xaa\xe0\xa4\xbe\xe0\xa4\xb2\xe0\xa5\x80'
p1182
I1
sS'seconds'
p1183
I1
sS'oacachefunction'
p1184
I1
sS'communicate'
p1185
I2
sS'parseIntidCookieInstancetimestamp'
p1186
I2
sS'mediahero'
p1187
I1
sS'Octoberh3'
p1188
I2
sS'thaturl'
p1189
I2
sS'httpstaticbbcicoukbbcdotcom03343'
p1190
I1
sS'functionstrifstrindexOfOBJECTTOKEN1return'
p1191
I1
sS'throw'
p1192
I1
sS'HAUSA'
p1193
I1
sS'classweathererrorp'
p1194
I1
sS'comparison'
p1195
I2
sS'island'
p1196
I2
sS'classtoplistheadingLatest'
p1197
I1
sS'Bataclan'
p1198
I17
sS'Images'
p1199
I2
sS'hrefhttpwwwbbccomcapitalstory20151116charitabledilemmathepitfallsofanonprofitboardseat'
p1200
I2
sS'classbbccookiesbanner'
p1201
I1
sS'desktoputilslazyloaderhttpstaticbbcicoukwwhp1890modulesdesktoputilslazyloader'
p1202
I1
sS'n\xc3\xb3i'
p1203
I2
sS'cvar'
p1204
I1
sS'bbccookiesd'
p1205
I1
sS'Biswasspan'
p1206
I1
sS'bbccookiesw'
p1207
I1
sS'windownspixelUrl'
p1208
I2
sS'your'
p1209
I8
sS'Week'
p1210
I2
sS'loc'
p1211
I1
sS'log'
p1212
I1
sS'her'
p1213
I1
sS'downed'
p1214
I2
sS'deserialisethisreadCookiethiscookieNamewindowbbcMandolinStorageprototypesavefunctiondatawindowbbccookiessetthiscookieNameencodeURIComponentserialisedata'
p1215
I1
sS'start'
p1216
I2
sS'mediapadded'
p1217
I19
sS'1445925600000'
p1218
I1
sS'tagentertainment'
p1219
I2
sS'Hannover'
p1220
I1
sS'Mahal'
p1221
I5
sS'plcifppkiforeturn'
p1222
I1
sS'modulecompound'
p1223
I1
sS'hrefindonesia'
p1224
I1
sS'hrefaboutthebbcAbout'
p1225
I1
sS'functionistats'
p1226
I2
sS'dataaltA'
p1227
I4
sS'AFRIQUE'
p1228
I1
sS'idbbccommodulefeature41234'
p1229
I1
sS'classbbccomdisplaynonedivdiv'
p1230
I2
sS'hrefhttpwwwbbccomtravelTravela'
p1231
I2
sS'embedded'
p1232
I1
sS'default'
p1233
I4
sS'hrefhttpwwwbbccoukworldserviceradio'
p1234
I1
sS'classmediaimage'
p1235
I50
sS'unveils'
p1236
I3
sS'namesuggid'
p1237
I1
sS'datasrchttpichefbbcicoukwwhpwidthcpsprodpb11B19production86737427gettyimages103933291jpg'
p1238
I1
sS'obbccookiesgetCrumbbbccookiesPOLICYEXPIRYCOOKIENAMEifoonew'
p1239
I1
sS'revprimaryspecialfeaturesheadline'
p1240
I2
sS'policyname'
p1241
I1
sS'ad'
p1242
I1
sS'\xd8\xa7\xd8\xb3\xd9\x84\xd8\xa7\xd9\x85\xdb\x8c\xdb\x81'
p1243
I2
sS'typeofcookieAphidMatch1'
p1244
I1
sS'sales'
p1245
I2
sS'an'
p1246
I7
sS'How'
p1247
I4
sS'AZ\xc6\x8fRBAYCAN'
p1248
I1
sS'revamps'
p1249
I1
sS'file'
p1250
I2
sS'hrefnewsworldafrica34852971'
p1251
I2
sS'hrefsportrugbyunion'
p1252
I1
sS'Homepage'
p1253
I3
sS'typeimage'
p1254
I1
sS'panelname'
p1255
I2
sS'firedquotquotpidquotquotp0389r9tquotquotsourcenamequotquotEuropequotquotsourceurlquotquotnewsworldeuropequotquotcreatedquotquot20151117T1107110000quotquotupdatedquotquot20151117T1107110000quotquotorigincodequotquotcpsprodpbquotquotgeliconquotquotvideoquotquotdurationquotquotPT1M48Squotquotallowadvertisingquotfalse'
p1256
I1
sS'event'
p1257
I1
sS'valid'
p1258
I1
sS'you'
p1259
I10
sS'More'
p1260
I1
sS'bbcdotcomconfigisActiveads'
p1261
I3
sS'contenthttpwwwbbccom'
p1262
I1
sS'hrefburmese'
p1263
I1
sS'includes'
p1264
I1
sS'START'
p1265
I1
sS'sitestatn'
p1266
I1
sS'revmorebbcsource'
p1267
I7
sS'dataactivesrchttpstaticbbcicoukid03225imgbbcidorbsigninlightpng'
p1268
I1
sS'bbcRequireMap'
p1269
I2
sS'network'
p1270
I1
sS'Magazinea'
p1271
I2
sS'websites'
p1272
I1
sS'Syriaquotquoturlquotquotnewsworldeurope34842535quotquotsummaryquotquotMigrants'
p1273
I1
sS'disablewideadvert'
p1274
I1
sS'istatsTrackingUrl'
p1275
I3
sS'DategetTime'
p1276
I4
sS'dataaltFrancois'
p1277
I1
sS'ojoindexOf01getCookieNamefunctionreturn'
p1278
I1
sS'Thinkstockimg'
p1279
I1
sS'external'
p1280
I2
sS'all'
p1281
I8
sS'hrefsportfootball34849263'
p1282
I2
sS'hrefturkce'
p1283
I1
sS'hrefnewsenglandbirminghamandblackcountry'
p1284
I1
sS'month'
p1285
I1
sS'bbcdotcomdata'
p1286
I4
sS'sung'
p1287
I1
sS'content'
p1288
I2
sS'Championship'
p1289
I2
sS'lochost'
p1290
I1
sS'wsheadlineurdu'
p1291
I1
sS'altWhen'
p1292
I1
sS'removal'
p1293
I1
sS'hrefhttpwwwbbccomnewsinpictures34837348'
p1294
I2
sS'moduleweather'
p1295
I1
sS'init'
p1296
I4
sS'hrefhindi'
p1297
I1
sS'OZBEK'
p1298
I1
sS'dressing'
p1299
I1
sS'Policya'
p1300
I1
sS'hreflanggdgb'
p1301
I1
sS'getSwfPrefix'
p1302
I1
sS'hrefnewsworldeurope34851943'
p1303
I2
sS'woman'
p1304
I2
sS'hrefnewstechnology'
p1305
I2
sS'Homepageh1'
p1306
I1
sS'horror'
p1307
I6
sS'hrefweather1880251day2'
p1308
I1
sS'hrefweather1880251day3'
p1309
I1
sS'hrefweather1880251day0'
p1310
I1
sS'hrefweather1880251day1'
p1311
I1
sS'fan'
p1312
I1
sS'fall'
p1313
I1
sS'idblqpremast'
p1314
I1
sS'Bengal'
p1315
I2
sS'condition'
p1316
I1
sS'themes'
p1317
I2
sS'Businessa'
p1318
I2
sS'classadvert'
p1319
I10
sS'joined'
p1320
I1
sS'MUNDO'
p1321
I1
sS'large'
p1322
I1
sS'1855img'
p1323
I1
sS'bheaderblackwhite'
p1324
I1
sS'adson'
p1325
I2
sS'strreplacegreplacegfunction'
p1326
I1
sS'cookies'
p1327
I5
sS'classwsheadlinetitlelink'
p1328
I4
sS'Should'
p1329
I2
sS'Only'
p1330
I1
sS'typebutton'
p1331
I1
sS'textjavascript'
p1332
I2
sS'bbcdotcomassetPrefix'
p1333
I1
sS'hrefnewsworldeurope34852948'
p1334
I4
sS'idbbccominterstitialad'
p1335
I1
sS'hrefnewsukenglandbirmingham28420222'
p1336
I2
sS'section'
p1337
I34
sS'classorbnavpri'
p1338
I1
sS'bbccookiesreadPolicyperformance'
p1339
I1
sS'tribute'
p1340
I3
sS'guns'
p1341
I2
sS'classwslanguageslist'
p1342
I1
sS'sitestatistatsTrackingUrl'
p1343
I1
sS'idbbccomparallax1234'
p1344
I1
sS'hreflangcygb'
p1345
I1
sS'h2Accessibility'
p1346
I1
sS'istatstrackdownload'
p1347
I1
sS'modulesecondaryspecialfeatures'
p1348
I1
sS'datasrchttpichefbbcicoukwwhpwidthcpsprodpb8F68production8672176386721570jpg'
p1349
I1
sS'windowsfendptnew'
p1350
I1
sS'dirrtl'
p1351
I2
sS'width84'
p1352
I1
sS'homepagehttpstaticbbcicoukwwhp1890moduleshomepage'
p1353
I1
sS'placeholderSearch'
p1354
I1
sS'iDspan'
p1355
I1
sS'classbbccookiesinternationalmessage'
p1356
I1
sS'modulehighlight'
p1357
I7
sS'experience'
p1358
I1
sS'Erroridcta'
p1359
I1
sS'hreflangen'
p1360
I1
sS'advertising'
p1361
I1
sS'social'
p1362
I3
sS'classbbccomdisplaynone'
p1363
I3
sS'hallucinations'
p1364
I2
sS'classorbnavculture'
p1365
I2
sS'woodburning'
p1366
I1
sS'href'
p1367
I1
sS'hrefhttpwwwbbccomtravelstory20151113theperfectplacetofindclarity'
p1368
I2
sS'segmentspickedwindowbbcMandolinStoragefunctionnamevalidateCookieNamenamethiscookieNamenamethisisEnabledbbccookiesisAllowedthiscookieNametruebbccookiescookiesEnabledtruewindowbbcMandolinStorageprototypesetItemfunctionkeyvaluevar'
p1369
I1
sS'hrefhttpwwwbbccomnewstechnology34819181'
p1370
I1
sS'Nigeria'
p1371
I2
sS'select'
p1372
I1
sS'Russias'
p1373
I1
sS'documentcookieindexOfadsdebug'
p1374
I1
sS'classtoplistitemheadlineUS'
p1375
I1
sS'contains'
p1376
I1
sS'two'
p1377
I1
sS'idnavporbfooterpromo'
p1378
I1
sS'6'
p1379
I1
sS'Russian'
p1380
I6
sS'wslanguagezh'
p1381
I1
sS'markets'
p1382
I1
sS'more'
p1383
I3
sS'Footballa'
p1384
I3
sS'idbbccookiescontinuebuttonContinuebutton'
p1385
I1
sS'fororbsearchqSearch'
p1386
I1
sS'yearimg'
p1387
I1
sS'showCTAflag'
p1388
I2
sS'site'
p1389
I2
sS'terror'
p1390
I3
sS'flag'
p1391
I3
sS'classeditorspicks'
p1392
I1
sS'particular'
p1393
I1
sS'known'
p1394
I3
sS'advertparallaxdiv'
p1395
I1
sS'idappversion07176hostnamesslbbccominsecurehostnamewwwbbccomtldbbccomidtranslationsversion03327identitybaseUrlhttpstalkbacklivebbccoukidentitycookieAgeDays730accessTokenCookieNamecknsIDAATKNpathwaynamenullstaticAssetUrlhttpstaticbbcicoukidapp07176modulesidappidapp1Viewcssidpurlhttpsidpapibbccoukidpoauth2authorizeclientidbbccoukresponsetypecodescopeopenidplaybbcstorerplaysanywplaysanyrfollowsanywfollowsanyrfavouritesanywfavouritesanyridmbasicrmodulebbccoukstateptrt3Dhttp3A2F2Fwwwbbccom2F26locale3DenGBredirecturihttps3A2F2Fsslbbccom2Fid2Foauth22Fconsume2Fidpbbccouk'
p1396
I1
sS'classmoduletitlecontainer'
p1397
I1
sS'town'
p1398
I2
sS'setJsPrefix'
p1399
I1
sS'wslanguageha'
p1400
I1
sS'classorbhilightRead'
p1401
I1
sS'idpagetitleBBC'
p1402
I1
sS'wslanguagehi'
p1403
I1
sS'\xd8\xb4\xd9\x88\xd8\xaf'
p1404
I2
sS'altIreland'
p1405
I1
sS'revprimaryspecialfeaturesoverlay'
p1406
I2
sS'Your'
p1407
I1
sS'T\xc3\x9cRK\xc3\x87E'
p1408
I1
sS'classtoplistitemheadlineAsian'
p1409
I1
sS'final'
p1410
I1
sS'titleFrench'
p1411
I1
sS'storeDatakeythissavestoreDatawindowbbcMandolinStorageprototypegetItemsfunctionreturn'
p1412
I1
sS'functionidCookie'
p1413
I1
sS'hrefarabic'
p1414
I1
sS'mediaoverlay'
p1415
I11
sS'orbnavsearch'
p1416
I1
sS'windowbbccookies'
p1417
I1
sS'classmediatag'
p1418
I50
sS'srchttpichefbbcicoukwwhp144cpsprodpb28E4production86686401deathdandy71bbcjpg'
p1419
I1
sS'hrefhttpwwwbbccom'
p1420
I2
sS'videoitemmostwatched'
p1421
I2
sS'jihadi'
p1422
I2
sS'Frances'
p1423
I3
sS'hrefhttpwwwbbccomfutureFuturea'
p1424
I2
sS'wslanguageid'
p1425
I1
sS'dataaltDr'
p1426
I1
sS'classorbnavmakeitdigital'
p1427
I2
sS'jetquotquoturlquotquotnewsworldasia34695863quotquotimgquotquothttpichefbbcicoukwwhp800cpsprodpb72F0production8644249286442489jpgquotquotallowadvertisingquottruequotpidquotquotp036wfdvquotquotdurationquotquotPT1M11SquotquotsourcenamequotquotAsiaquotquotsourceurlquotquotnewsworldasiaquotquotsummaryquotquotChinas'
p1428
I1
sS'relalternate'
p1429
I4
sS'posplitreturnadsp0personalisationp1performancep2necessarytruefunction'
p1430
I1
sS'plane'
p1431
I6
sS'storeDatakeywindowbbcMandolinStorageprototyperemoveItemfunctionkeyvar'
p1432
I1
sS'httpstaticbbcicoukid03225modulesidctaoverlayManager'
p1433
I1
sS'waves'
p1434
I2
sS'istatsaddLabelsnsnc'
p1435
I1
sS'sfasyncconfiguid'
p1436
I1
sS'bbccookiesPOLICYREFRESHDATEMILLISogetTimeelsereturn'
p1437
I1
sS'layoutfeatured'
p1438
I2
sS'Lerosimg'
p1439
I1
sS'footer'
p1440
I2
sS'jihadist'
p1441
I1
sS'assailant'
p1442
I1
sS'media'
p1443
I3
sS'banks'
p1444
I1
sS'classorbnavsection'
p1445
I5
sS'What'
p1446
I4
sS'help'
p1447
I2
sS'Naduimg'
p1448
I1
sS'typesubmit'
p1449
I1
sS'stringifObjectprototypetoStringcallsegmentsobject'
p1450
I1
sS'isnt'
p1451
I3
sS'through'
p1452
I2
sS'idCookieInstanceisDowngraded'
p1453
I1
sS'decodeURIComponentdocumentcookiereplacenew'
p1454
I1
sS'its'
p1455
I4
sS'idorbpanels'
p1456
I1
sS'style'
p1457
I1
sS'blast'
p1458
I2
sS'20'
p1459
I1
sS'revworldinpicturesheader'
p1460
I1
sS'prodigy'
p1461
I1
sS'windowbbcredirectiongeotrue'
p1462
I1
sS'happlythisargumentsreadPolicyfunctionreturn'
p1463
I1
sS'klength'
p1464
I1
sS'Brussels'
p1465
I2
sS'Tamil'
p1466
I3
sS'classmedia'
p1467
I50
sS'waitSeconds'
p1468
I1
sS'videoitemrecommended'
p1469
I5
sS'classcontent'
p1470
I1
sS'return'
p1471
I7
sS'typehidden'
p1472
I2
sS'Bay'
p1473
I2
sS'classweatherlocation'
p1474
I1
sS'windoworbfiguk'
p1475
I1
sS'sweeping'
p1476
I2
sS'association'
p1477
I1
sS'deserialisestrvar'
p1478
I1
sS'Documentaryspan'
p1479
I1
sS'zconcatawindowlocationhostnamewfwindowlocationpathnameyrxforvar'
p1480
I1
sS'tagcapital'
p1481
I3
sS'actionwwhp'
p1482
I1
sS'valuewindowbbcMandolinStorageprototypeisEnabledfunctionreturn'
p1483
I1
sS'iPlayer'
p1484
I1
sS'Environmenta'
p1485
I1
sS'investigators'
p1486
I1
sS'heavy'
p1487
I2
sS'altStep'
p1488
I1
sS'Persian'
p1489
I2
sS'classorbicon'
p1490
I1
sS'srchttpichefbbcicoukwwhp144ibroadcastimageslivep038bxp038bxdtjpg'
p1491
I1
sS'tagbusiness'
p1492
I2
sS'http'
p1493
I1
sS'Sporta'
p1494
I1
sS'rolesearch'
p1495
I1
sS'really'
p1496
I2
sS'missed'
p1497
I1
sS'hrefmusicMusica'
p1498
I2
sS'hrefnews'
p1499
I1
sS'cyclone'
p1500
I2
sS'hrefprivacycookiesbbcFind'
p1501
I1
sS'issue'
p1502
I2
sS'meteorological'
p1503
I2
sS'bbcdotcomflag'
p1504
I1
sS'poelsereturn'
p1505
I1
sS'datasrchttpichefbbcicoukwwhpwidthibroadcastimageslivep02z7gp02z7gfljpg'
p1506
I2
sS'httpsssllivebbccoukempbump3ssl'
p1507
I1
sS'reason'
p1508
I1
sS'propertyogtype'
p1509
I1
sS'cookie'
p1510
I5
sS'dataactivesrchttpstaticbbcicoukframeworksbarlesque29313orb4imgbbcblocksdarkpng'
p1511
I1
sS'EU'
p1512
I1
sS'classorbnaviplayer'
p1513
I2
sS'classblocklinkoverlaylink'
p1514
I50
sS'killedquotquotimgquotquothttpichefbbcicoukwwhp800cpsprodpb2F52production8674112186741120jpgquotquotimgalttextquotquotA'
p1515
I1
sS'dataaltRefugees'
p1516
I1
sS'threat'
p1517
I1
sS'SOMALI'
p1518
I1
sS'uncoditional'
p1519
I1
sS'SWAHILI'
p1520
I1
sS'dont'
p1521
I2
sS'peoplequotquotimgquotquothttpichefbbcicoukwwhp800cpsprodpb702Aproduction86741782p038cglsjpgquotquotimgalttextquotquotAbdelhamid'
p1522
I1
sS'Pashto'
p1523
I1
sS'Indias'
p1524
I1
sS'title\xd8\xb1\xd9\x88\xd8\xb3'
p1525
I1
sS'Indian'
p1526
I4
sS'wwwgoogletagservicescomtagjsgptjs'
p1527
I1
sS'gads'
p1528
I1
sS'Indiaa'
p1529
I3
sS'Sinai'
p1530
I2
sS'story'
p1531
I1
sS'classmodule'
p1532
I15
sS'\xda\xa9\xd8\xa7'
p1533
I2
sS'jet'
p1534
I2
sS'script'
p1535
I8
sS'srchttpstaticbbcicoukframeworksbarlesque29313orb4scriptorbminjs'
p1536
I1
sS'Molenbeekimg'
p1537
I1
sS'modulesweatherhttpstaticbbcicoukwwhp1890modulesmodulesweather'
p1538
I1
sS'least'
p1539
I2
sS'opmatchreturnoolengtho0function'
p1540
I1
sS'datasrchttpichefbbcicoukwwhpwidthcpsprodpb11E60production86721337arcjpg'
p1541
I1
sS'Arraythrow'
p1542
I1
sS'gpt'
p1543
I1
sS'CONFIGURATION'
p1544
I2
sS'datasrchttpichefbbcicoukwwhpwidthcpsprodpb10D27production867309860301668101jpg'
p1545
I1
sS'Fader'
p1546
I1
sS'classtoplist'
p1547
I2
sS'revhero6source'
p1548
I1
sS'itemsthisstoregetItemsexpiresIntexpiresforvar'
p1549
I1
sS'classwsheadlinetitle'
p1550
I4
sS'height18'
p1551
I2
sS'Malik'
p1552
I4
sS'canvasclock1httpstaticbbcicoukframeworksclock019sharedmodulescanvasclock1'
p1553
I1
sS'believe'
p1554
I1
sS'jquery'
p1555
I1
sS'b'
p1556
I2
sS'Thinkstock'
p1557
I1
sS'srchttpstaticbbcicoukid03225imgbbcidorbsigninlightpng'
p1558
I1
sS'\xe4\xb8\xad\xe6\x96\x87\xe7\xbd\x91'
p1559
I1
sS'documentgetElementsByTagNamescript0'
p1560
I1
sS'Europea'
p1561
I12
sS'windoworb'
p1562
I2
sS'ididctausernameBBC'
p1563
I1
sS'\xd9\x81\xd8\xa7\xd8\xb1\xd8\xb3\xdb\x8c'
p1564
I1
sS'wasnt'
p1565
I3
sS'dataaltIndian'
p1566
I1
sS'bodiesquotquoturlquotquotnewsworld34843276quotquotsummaryquotquotParis'
p1567
I1
sS'magical'
p1568
I3
sS'DategetTimestoredItemDEFAULTSTARTnowDEFAULTRATE1COOKIENAMEckpfmandolinoptsoptsthisididthissegmentSetsegmentsthisstorenew'
p1569
I1
sS'sfasyncconfigdomain'
p1570
I1
sS'null'
p1571
I1
sS'orders'
p1572
I1
sS'expiresgetLastExpirationDatedatatoUTCStringwindowbbcMandolinStorageprototypereadCookiefunctionnamevar'
p1573
I1
sS'Justin'
p1574
I1
sS'truereturn'
p1575
I1
sS'paths'
p1576
I3
sS'DateparseIntoosetYearogetFullYear1return'
p1577
I1
sS'lia'
p1578
I1
sS'requireistats1'
p1579
I5
sS'Ukrainian'
p1580
I1
sS'hrefhttpwwwbbccoukvietnamese'
p1581
I1
sS'ptrt'
p1582
I1
sS'officers'
p1583
I2
sS'lit'
p1584
I5
sS'desktopuivideoplayerhttpstaticbbcicoukwwhp1890modulesdesktopuivideoplayer'
p1585
I1
sS'advertmpumiddlediv'
p1586
I1
sS'Germany'
p1587
I2
sS'altJiang'
p1588
I1
sS'notset'
p1589
I1
sS'logactionTypeparamsvar'
p1590
I1
sS'storeDatathisgetItemsdelete'
p1591
I1
sS'jquery19httpstaticbbcicoukframeworksjquery030sharedmodulesjquery191'
p1592
I1
sS'added'
p1593
I2
sS'James'
p1594
I1
sS'srchttpstaticbbcicoukweather05284imagesiconsindividual56iconsenonlightbg29gif'
p1595
I4
sS'react'
p1596
I1
sS'most'
p1597
I1
sS'sponsored'
p1598
I1
sS'nullvar'
p1599
I1
sS'15img'
p1600
I1
sS'70'
p1601
I1
sS'The'
p1602
I17
sS'Google'
p1603
I5
sS'Egypt'
p1604
I1
sS'clear'
p1605
I2
sS'cover'
p1606
I1
sS'idbbccommodulefeature31234'
p1607
I1
sS'transplant'
p1608
I3
sS'windowwindowbbcMandolinStorageCOOKIENAMEthisoptsoptsthisrateoptsrateundefinedoptsrateDEFAULTRATEthisstartTsoptsstartundefinednew'
p1609
I1
sS'googletagcmd'
p1610
I2
sS'anthem'
p1611
I1
sS'barren'
p1612
I1
sS'If'
p1613
I1
sS'serialiseovar'
p1614
I1
sS'phenomenon'
p1615
I1
sS'classorbnavpricontainer'
p1616
I1
sS'reveditorspicksoverlay'
p1617
I7
sS'Abaaoud'
p1618
I1
sS'session'
p1619
I1
sS'srchttps'
p1620
I2
sS'httpssslbbccouk'
p1621
I1
sS'screenshots'
p1622
I1
sS'find'
p1623
I1
sS'blocklink'
p1624
I50
sS'dataaltIreland'
p1625
I1
sS'classwsradioprogramme'
p1626
I1
sS'northern'
p1627
I1
sS'documentdomain'
p1628
I1
sS'classtoplistitembullet'
p1629
I8
sS'firedimg'
p1630
I1
sS'French'
p1631
I11
sS'Shanghai'
p1632
I1
sS'OFF'
p1633
I1
sS'Nepali'
p1634
I1
sS'getLastExpirationDatedatavar'
p1635
I1
sS'classorbfooterleadExplore'
p1636
I1
sS'DaterollingExpirewindowbbcMandolinprototypelogfunctionparamslogcallthismandolinlogparamswindowbbcMandolinprototypeconvertfunctionparamslogcallthismandolinconvertparamsthisconvertfunctionfunction'
p1637
I1
sS'websitespan'
p1638
I1
sS'oscript'
p1639
I1
sS'batter'
p1640
I1
sS'hrefcontactContact'
p1641
I1
sS'during'
p1642
I5
sS'Deschamps'
p1643
I2
sS'Roboticsimg'
p1644
I1
sS'revworldinpictures1headline'
p1645
I1
sS'requireorbpromomanager'
p1646
I1
sS'Urdu'
p1647
I2
sS'x'
p1648
I1
sS'fairytale'
p1649
I3
sS'approaching'
p1650
I2
sS'dataifdatakeyendundefinedrollingExpirewinnerwinnerrollingExpireelseifdatakeyendwinnerwinnerdatakeyendreturnwinnernew'
p1651
I1
sS'set'
p1652
I2
sS'art'
p1653
I2
sS'dataaltDidier'
p1654
I1
sS'locale'
p1655
I2
sS'National'
p1656
I2
sS'INDONESIA'
p1657
I1
sS'documentwrite'
p1658
I4
sS'France'
p1659
I4
sS'goreturn'
p1660
I1
sS'feared'
p1661
I1
sS'windowscreen'
p1662
I1
sS'expert'
p1663
I3
sS'pictures'
p1664
I6
sS'titleArabic'
p1665
I1
sS'mediavideo'
p1666
I10
sS'quotfully'
p1667
I1
sS'fans'
p1668
I5
sS'Part'
p1669
I1
sS'captured'
p1670
I2
sS'parallaxleaderboardnativempumpumiddlempubottommodulefeature1modulefeature2modulefeature3modulefeature4modulechannelaustralia'
p1671
I1
sS'hrefrussian'
p1672
I1
sS'windowonload'
p1673
I3
sS'solo'
p1674
I1
sS'Uzbek'
p1675
I1
sS'fanquotquotpidquotquotp038c69dquotquotsourcenamequotquotEuropequotquotsourceurlquotquotnewsworldeuropequotquotcreatedquotquot20151117T1938410000quotquotupdatedquotquot20151117T1938410000quotquotorigincodequotquotcpsprodpbquotquotgeliconquotquotvideoquotquotsourceidquotquotvideosquotquotitemtypequotquotfeedquotquotdurationquotquotPT3M18Squotquotallowadvertisingquotfalse'
p1676
I1
sS'javascript'
p1677
I1
sS'revhero4headline'
p1678
I1
sS'Marcusspan'
p1679
I1
sS'Imagesimg'
p1680
I2
sS'Africaa'
p1681
I1
sS'Capitala'
p1682
I3
sS'hrefnewsworldeurope34853581'
p1683
I2
sS'hreftvTVa'
p1684
I2
sS'Crowbar'
p1685
I2
sS'c'
p1686
I2
sS'last'
p1687
I1
sS'desktoputilspopuphttpstaticbbcicoukwwhp1890modulesdesktoputilspopup'
p1688
I1
sS'idorbcontentinfo'
p1689
I1
sS'Nigerian'
p1690
I1
sS'hrefnewsbusiness'
p1691
I2
sS'titleKyrgyz'
p1692
I1
sS'Superman'
p1693
I4
sS'revworldinpictures3overlay'
p1694
I1
sS'hackers'
p1695
I1
sS'Turkish'
p1696
I1
sS'jssignals1httpstaticbbcicoukframeworksjssignals036modulesjssignals1'
p1697
I1
sS'hrefnewsworldasiaindia'
p1698
I3
sS'toplistitemeven'
p1699
I6
sS'header'
p1700
I2
sS'tagtravel'
p1701
I3
sS'hrefprivacyPrivacy'
p1702
I1
sS'ps'
p1703
I1
sS'cggetElementByIdbbccookiesifcwindoworbfigukcclassNamecclassNamereplacebbbccookiesdbcclassNamecclassName'
p1704
I1
sS'vendorjsbreakpointsbreakpoints'
p1705
I1
sS'pf'
p1706
I1
sS'mutiny'
p1707
I1
sS'Supermanimg'
p1708
I1
sS'flight'
p1709
I1
sS'datasrchttpichefbbcicoukwwhpwidthcpsprodpbA94Eproduction86724334de17jpg'
p1710
I1
sS'altDebris'
p1711
I1
sS'else'
p1712
I6
sS'istatsaddLabels'
p1713
I1
sS'classorbnavcbeebies'
p1714
I2
sS'lives'
p1715
I1
sS'prices'
p1716
I1
sS'dataaltCharlie'
p1717
I1
sS'developments'
p1718
I2
sS'extensive'
p1719
I3
sS'dpvar'
p1720
I1
sS'survivor'
p1721
I4
sS'bbcdotcomslotAsyncmpu'
p1722
I1
sS'hrefhttpwwwbbccomnewsliveworldeurope34840858'
p1723
I2
sS'straight'
p1724
I3
sS'opobjectopnullnullserialiseopoptoStringreturn'
p1725
I1
sS'classforecastlink'
p1726
I4
sS'classtoplistitembullet3span'
p1727
I1
sS'cookieAphidMatch'
p1728
I2
sS'exdptestwindowlocationhref'
p1729
I1
sS'\xc4\x91\xc3\xa2m'
p1730
I2
sS'datacategoryindex0'
p1731
I3
sS'bbcdotcomslotAsyncleaderboard'
p1732
I1
sS'Eagles'
p1733
I2
sS'datacategoryindex1'
p1734
I3
sS'hrefnewsworldasia'
p1735
I3
sS'around'
p1736
I1
sS'bcknspolicydd0testdocumentcookie'
p1737
I1
sS'aged'
p1738
I3
sS'BRASIL'
p1739
I1
sS'dataaltMilitary'
p1740
I1
sS'classorbskiplinks'
p1741
I1
sS'shorter'
p1742
I1
sS'10toGMTString'
p1743
I1
sS'classvideoplayer'
p1744
I1
sS'srchttpsfigbbccoukframeworksfig1figjsscriptconfirmfunctionaaawindowifaorbaorbfigaorbfignothissetNoFigCookieaifaorbundefinedaorbfigundefinedthissetFigano1thissetNoFigCookieasetNoFigCookiefunctionaadocumentcookiecknsorbnofig1'
p1745
I1
sS'9'
p1746
I2
sS'istatstrackexternal'
p1747
I1
sS'Faith'
p1748
I2
sS'gelui1httpstaticbbcicoukframeworksgelui0913sharedmodulesgelui1'
p1749
I1
sS'used'
p1750
I6
sS'hrefcbeebiesCBeebiesa'
p1751
I2
sS'dataaltDebris'
p1752
I1
sS'flooded'
p1753
I2
sS'altDetail'
p1754
I1
sS'hrefprivacycookiesmanagingcookiesettingshtmlChange'
p1755
I1
sS'alert'
p1756
I2
sS'altThundery'
p1757
I4
sS'googletag'
p1758
I2
sS'dataalt2013'
p1759
I1
sS'classtoplistlist'
p1760
I2
sS'classorbnavtravel'
p1761
I2
sS'Power'
p1762
I1
sS'datavideoquotcontenttypequotquotvideoquotquotnumquotquot10quotquottypequotquotMAPquotquottitlequotquotPolice'
p1763
I1
sS'Technology'
p1764
I1
sS'mediaprimary'
p1765
I11
sS'tagautos'
p1766
I1
sS'Rate'
p1767
I1
sS'Williamimg'
p1768
I1
sS'bbccookiessetcknsorbnopromo1'
p1769
I1
sS'classorbnavfood'
p1770
I2
sS'classorbnavradio'
p1771
I2
sS'datasrchttpichefbbcicoukwwhpwidthcpsprodpb10878production86740776nigeriaadamawayola4641115png'
p1772
I1
sS'Mitchells'
p1773
I2
sS'idCookieInstancedowngrade'
p1774
I1
sS'amp'
p1775
I4
sS'altSketch'
p1776
I1
sS'dataaltJiang'
p1777
I1
sS'enGB'
p1778
I1
sS'hrefsportfootball'
p1779
I2
sS'datasrchttpichefbbcicoukwwhpwidthcpsprodpb5125production8673770286737698jpg'
p1780
I1
sS'hrefartsArtsa'
p1781
I2
sS'functionstr'
p1782
I1
sS'also'
p1783
I1
sS'sfasyncconfig'
p1784
I1
sS'orbw'
p1785
I20
sS'documentwritescript'
p1786
I5
sS'ROLLINGPERIODDAYS30windowbbcMandolinfunctionidsegmentsoptsvar'
p1787
I1
sS'input'
p1788
I6
sS'googletagdisplaywallpaper'
p1789
I1
sS'orbd'
p1790
I10
sS'istatsgetSite'
p1791
I1
sS'emergency'
p1792
I4
sS'height24'
p1793
I1
sS'hrefhttpwwwbbccomtravelcolumnswhyilovetofly'
p1794
I1
sS'showing'
p1795
I2
sS'srchttpstaticbbcicoukbbcdotcom03343scriptorbindividualjsx3Cscript'
p1796
I1
sS'Cookies'
p1797
I1
sS'videoitem8'
p1798
I1
sS'hrefiwonderiWondera'
p1799
I2
sS'videoitem6'
p1800
I1
sS'videoitem7'
p1801
I1
sS'datasrchttpichefbbcicoukwwhpwidthcpsprodpb426Cproduction86740071williamdeschampjpg'
p1802
I1
sS'videoitem5'
p1803
I1
sS'videoitem2'
p1804
I1
sS'videoitem3'
p1805
I1
sS'videoitem0'
p1806
I1
sS'videoitem1'
p1807
I1
sS'ON'
p1808
I5
sS'classweatherform'
p1809
I1
sS'isAdsEnabled'
p1810
I1
sS'idblqbbccookiestmplCDATA'
p1811
I1
sS'requireidctaidCookie'
p1812
I1
sS'continue'
p1813
I2
sS'classbbccomadvert'
p1814
I10
sS'classmediaicon'
p1815
I17
sS'Desertimg'
p1816
I1
sS'play'
p1817
I1
sS'Airspan'
p1818
I1
sS'windowbbcdotcom'
p1819
I23
sS'classmorebbc'
p1820
I1
sS'hrefnewsuk'
p1821
I1
sS'orbbannerwrapper'
p1822
I1
sS'datasrchttpichefbbcicoukwwhpwidthcpsprodpb166A6production86741819lomuafpjpg'
p1823
I1
sS'classtoplistitemheadlineAsda'
p1824
I1
sS'facing'
p1825
I1
sS'bbcdotcomconfigisAsync'
p1826
I1
sS'titleUzbek'
p1827
I1
sS'ASNYC'
p1828
I1
sS'kh\xe1\xbb\xa7ng'
p1829
I2
sS'tends'
p1830
I1
sS'iconvideo'
p1831
I12
sS'classforecastdayWedh3'
p1832
I1
sS'protomatchsi'
p1833
I1
sS'bf'
p1834
I1
sS'Buhari'
p1835
I1
sS'bovar'
p1836
I1
sS'datasrchttpichefbbcicoukwwhpwidthibroadcastimageslivep037rqp037rqhtjpg'
p1837
I1
sS'classforecastdayThuh3'
p1838
I1
sS'RegExpsencodeURIComponentoreplacegss1nullpolicyRequiresRefreshfunctionvar'
p1839
I1
sS'br'
p1840
I5
sS'hrefiplayeriPlayera'
p1841
I2
sS'refuses'
p1842
I2
sS'istatsaddLabelsbbcidentity'
p1843
I1
sS'classwwhp'
p1844
I1
sS'datasrchttpichefbbcicoukwwhpwidthibroadcastimageslivep038cmp038cmx3jpg'
p1845
I1
sS'contentwebsite'
p1846
I1
sS'usa'
p1847
I1
sS'hrefhttpwwwbbccomcapitalcolumnsaboveboardwithlucymarcus'
p1848
I1
sS'modulesport'
p1849
I1
sS'bgp'
p1850
I5
sS'hrefradioRadioa'
p1851
I2
sS'hrefhttpshopbbccomShopa'
p1852
I2
sS'falsebbccookiessetPolicybbccookiesreadPolicyvar'
p1853
I1
sS'30000ft'
p1854
I2
sS'pollution'
p1855
I1
sS'Picturesa'
p1856
I4
sS'hrefsportfootball34849505'
p1857
I2
sS'Lomuimg'
p1858
I1
sS'classfeaturelink'
p1859
I4
sS'hrefhttpwwwbbccomcultureCulturea'
p1860
I2
sS'Countrya'
p1861
I1
sS'revworldinpictures2overlay'
p1862
I1
sS'namelocationterm'
p1863
I1
sS'abreplaceaz209gfunctionaRegExp1RegExp2return'
p1864
I1
sS'span'
p1865
I94
sS'Usea'
p1866
I1
sS'RegExp1'
p1867
I1
sS'question'
p1868
I2
sS'title\xd9\x85\xd9\x87\xd8\xa7\xd8\xac\xd9\x85'
p1869
I1
sS'spanCorrespondentsh2'
p1870
I1
sS'Anthony'
p1871
I2
sS'libmodulemanagerhttpstaticbbcicoukwwhp1890moduleslibmodulemanager'
p1872
I1
sS'classcontainer'
p1873
I3
sS'bbccookiessete'
p1874
I1
sS'srchttpichefbbcicoukwwhp144ibroadcastimageslivep038cmp038cmx3jpg'
p1875
I1
sS'methodget'
p1876
I1
sS'moduleregionalnews'
p1877
I1
sS'link'
p1878
I8
sS'srchttpichefbbcicoukwwhp144cpsprodpb7ADCproduction86725413122195649947021139201635961472730376401644njpg'
p1879
I1
sS'bbcdotcomcurrencyProviderspostWrite'
p1880
I1
sS'line'
p1881
I1
sS'revregionalnewsheader'
p1882
I1
sS'Irish'
p1883
I2
sS'decodeURIkgsubstringm'
p1884
I1
sS'revsportsource'
p1885
I3
sS'rolenavigation'
p1886
I2
sS'ut'
p1887
I1
sS'Africa'
p1888
I1
sS'up'
p1889
I9
sS'us'
p1890
I2
sS'ul'
p1891
I42
sS'classfeature'
p1892
I4
sS'carmakers'
p1893
I3
sS'addLoadEvent'
p1894
I1
sS'called'
p1895
I4
sS'encodeURIwindoworbreferrer'
p1896
I1
sS'Supposedly'
p1897
I1
sS'MondayquotquotimgalttextquotquotThe'
p1898
I1
sS'datasrchttpichefbbcicoukwwhpwidthcpsprodpb702Aproduction86741782p038cglsjpg'
p1899
I1
sS'defined'
p1900
I1
sS'srchttpichefbbcicoukwwhp144cpsprodpbFF50production86606356lecrowbarjpg'
p1901
I1
sS'Zurcherspan'
p1902
I2
sS'To'
p1903
I1
sS'Above'
p1904
I1
sS'kidney'
p1905
I1
sS'wslanguageky'
p1906
I1
sS'riot'
p1907
I5
sS'bbcdotcomadvertsadRegistergetAdwallpaper'
p1908
I1
sS'rains'
p1909
I1
sS'pnew'
p1910
I1
sS'dataaltTill'
p1911
I1
sS'classvideo'
p1912
I1
sS'nav'
p1913
I2
sS'typeofdocumentcookie'
p1914
I2
sS'hrefhttpwwwbbccomnewsworldasia34829617'
p1915
I1
sS'hrefhttpwwwbbccomfuturestory20151117thereasonwhyeverydayheroesemergeinatrocities'
p1916
I2
sS'dateremoveExpiredcallthisnowvar'
p1917
I1
sS'dataaltSupposedly'
p1918
I1
sS'users'
p1919
I4
sS'adstestwindowlocationhref'
p1920
I1
sS'robots'
p1921
I4
sS'Shower'
p1922
I4
sS'windowdocument'
p1923
I1
sS'militants'
p1924
I2
sS'wrinkle'
p1925
I2
sS'e'
p1926
I4
sS'toplistitemodd'
p1927
I7
sS'An'
p1928
I2
sS'tagscience'
p1929
I1
sS'At'
p1930
I1
sS'Asiaa'
p1931
I2
sS'altNazi'
p1932
I1
sS'Warsaw'
p1933
I2
sS'hrefhttpwwwbbccoukcymru'
p1934
I1
sS'\xe3\x82\xaa\xe3\x83\xa9\xe3\x83\xb3\xe3\x83\x89\xe4\xbb\x8f\xe5\xa4\xa7\xe7\xb5\xb1\xe9\xa0\x98\xe3\x80\x81IS\xe6\x89\x93\xe5\x80\x92\xe3\x81\xae\xe6\xb1\xba\xe6\x84\x8f\xe8\xa1\xa8\xe6\x98\x8e'
p1935
I1
sS'windowbbcdotcomanalytics'
p1936
I1
sS'G20'
p1937
I1
sS'Abdeslamimg'
p1938
I1
sS'issued'
p1939
I2
sS'datasrchttpichefbbcicoukwwhpwidthibroadcastimageslivep03858p038582njpg'
p1940
I1
sS'httpstaticbbcicoukid03225modulesidctaidCookie'
p1941
I1
sS'altRefugees'
p1942
I1
sS'httpstaticbbcicoukidapp07176modulesidappidapp1'
p1943
I1
sS'seemed'
p1944
I3
sS'Business'
p1945
I2
sS'dissidents'
p1946
I1
sS'classorbnavautos'
p1947
I2
sS'attackers'
p1948
I2
sS'Step'
p1949
I1
sS'Kirundi'
p1950
I1
sS'Deadly'
p1951
I2
sS'Nov'
p1952
I2
sS'women'
p1953
I2
sS'threatreimg'
p1954
I2
sS'friendly'
p1955
I5
sS'domReady'
p1956
I1
sS'hrefhttpwwwbbccomautosstory20151116drivingthemclarenofsportscars'
p1957
I2
sS'modulemorebbc'
p1958
I1
sS'tagfuture'
p1959
I1
sS'tagfeatureMore'
p1960
I1
sS'oldonload'
p1961
I2
sS'Crematorium'
p1962
I2
sS'taginpictures'
p1963
I6
sS'tagmagazine'
p1964
I1
sS'propertyogtitle'
p1965
I1
sS'bbcdotcomutilsgetMetaPropertyContentwwhpedition'
p1966
I1
sS'disabledByCookie'
p1967
I2
sS'button'
p1968
I3
sS'f'
p1969
I3
sS'titleNepali'
p1970
I1
sS'edddpdocumentcookiematchoifpreturn'
p1971
I1
sS'race'
p1972
I1
sS'revworldinpictures1source'
p1973
I1
sS'\xd8\xa7\xd9\x88\xd8\xb1'
p1974
I2
sS'Tuesdays'
p1975
I1
sS'Turkey'
p1976
I2
sS'height17'
p1977
I1
sS'loifonullreturn'
p1978
I1
sS'nulldopickedMathfloorMathrandommaxmin1minwhilepickedmaxreturn'
p1979
I1
sS'fold'
p1980
I1
sS'video'
p1981
I3
sS'csspclock1httpstaticbbcicoukframeworksclock019sharedmodulesclock1css'
p1982
I1
sS'anthemquotquotimgquotquothttpichefbbcicoukwwhp800cpsprodpb5125production8673770286737698jpgquotquotimgalttextquotquotWembley'
p1983
I1
sS'dataaltSahara'
p1984
I1
sS'\xd9\xbe\xd8\xb1'
p1985
I2
sS'useoverlay'
p1986
I1
sS'desktopuitennisresultshttpstaticbbcicoukwwhp1890modulesdesktopuitennisresults'
p1987
I1
sS'morealiul'
p1988
I1
sS'unavailable'
p1989
I1
sS'giving'
p1990
I1
sS'Newsh2'
p1991
I1
sS'trueelsereturn'
p1992
I1
sS'sfasyncconfigsections'
p1993
I1
sS'modulenews'
p1994
I1
sS'Pradesh'
p1995
I1
sS'can'
p1996
I1
sS'body'
p1997
I2
sS'Airports'
p1998
I1
sS'liberatingquot'
p1999
I1
sS'gathered'
p2000
I1
sS'classtoplistitemheadlineRedcar'
p2001
I1
sS'Greek'
p2002
I3
sS'objects'
p2003
I1
sS'others'
p2004
I1
sS'classorbfooter'
p2005
I1
sS'sing'
p2006
I4
sS'dataaltDetail'
p2007
I1
sS'hrefnewsinpictures'
p2008
I5
sS'datasrchttpichefbbcicoukwwhpwidthibroadcastimageslivep0386yp0386y78jpg'
p2009
I1
sS'hreffoodFooda'
p2010
I2
sS'great'
p2011
I3
sS'Yola'
p2012
I1
sS'Chinese'
p2013
I4
sS'idbbccookies'
p2014
I1
sS'receive'
p2015
I1
sS'involved'
p2016
I2
sS'datacategoryindex4'
p2017
I1
sS'30'
p2018
I4
sS'datacategoryindex2'
p2019
I2
sS'datacategoryindex3'
p2020
I1
sS'35'
p2021
I1
sS'idorbsearchq'
p2022
I1
sS'survey'
p2023
I1
sS'classwsradiotitle'
p2024
I1
sS'titleRussian'
p2025
I1
sS'Arabic'
p2026
I1
sS'loses'
p2027
I1
sS'makes'
p2028
I3
sS'ovar'
p2029
I1
sS'win'
p2030
I2
sS'app'
p2031
I1
sS'arguments0stringvar'
p2032
I1
sS'Hindi'
p2033
I1
sS'nameq'
p2034
I1
sS'advertleaderboarddiv'
p2035
I1
sS'scandal'
p2036
I2
sS'idbbccommodulefeature11234'
p2037
I1
sS'revhero1overlay'
p2038
I1
sS'use'
p2039
I4
sS'from'
p2040
I19
sS'idCookieInstancetimestamp'
p2041
I1
sS'httpstaticbbcicouk'
p2042
I1
sS'titleSomali'
p2043
I1
sS'planeimg'
p2044
I1
sS'iftypeof'
p2045
I1
sS'dataaltWembley'
p2046
I1
sS'Leccy'
p2047
I2
sS'Reaction'
p2048
I1
sS'defineorbpromomanager'
p2049
I1
sS'classforecastdaySath3'
p2050
I1
sS'titleVietnamese'
p2051
I2
sS'milliseconds'
p2052
I1
sS'hrefnewsbusiness34847164'
p2053
I1
sS'idbbccookiesmorea'
p2054
I1
sS'Disruptors'
p2055
I1
sS'bbcdotcomslotAsyncmpubottom'
p2056
I1
sS'altMilitary'
p2057
I1
sS'classorbbannertitle'
p2058
I1
sS'bbcdotcomanalyticspage'
p2059
I1
sS'baby'
p2060
I3
sS'hrefhausa'
p2061
I1
sS'\xd9\x85\xdb\x8c'
p2062
I2
sS'Lerosquotquotpidquotquotp0389mldquotquotsourcenamequotquotEuropequotquotsourceurlquotquotnewsworldeuropequotquotcreatedquotquot20151117T1042280000quotquotupdatedquotquot20151117T1042280000quotquotorigincodequotquotcpsprodpbquotquotgeliconquotquotvideoquotquotallowadvertisingquottruequotdurationquotquotPT51Squot'
p2063
I1
sS'charity'
p2064
I2
sS'account'
p2065
I1
sS'cbaorbaorbaorbfigfunctiondreturnargumentslengthcdcdeserialisefunctionbvar'
p2066
I1
sS'deserialisationevalo'
p2067
I1
sS'rolemain'
p2068
I1
sS'Birmingham'
p2069
I2
sS'classorbfooterprimarylinks'
p2070
I1
sS'idbbccomleaderboard1234'
p2071
I1
sS'esetAttributesrc'
p2072
I1
sS'Police'
p2073
I4
sS'titleTurkish'
p2074
I1
sS'thatthisrequireistats1functionistatsistatslogactionTypethatidthatsegmentparamsparamsfunction'
p2075
I1
sS'bbccookiesisAlloweds1'
p2076
I3
sS'Culturea'
p2077
I1
sS'hrefnewsbusiness34847161'
p2078
I1
sS'tag'
p2079
I62
sS'pulling'
p2080
I1
sS'slip'
p2081
I1
sS'Party'
p2082
I2
sS'hrefhttpstaticbbcicoukframeworksbarlesque29313orb4styleorbmincss'
p2083
I1
sS'hit'
p2084
I2
sS'titleChinese'
p2085
I1
sS'fearsome'
p2086
I3
sS'united'
p2087
I1
sS'altIndian'
p2088
I1
sS'HIV'
p2089
I1
sS'McLaren'
p2090
I2
sS'classfeaturecontent'
p2091
I4
sS'altMap'
p2092
I1
sS'wslanguagene'
p2093
I1
sS'unites'
p2094
I3
sS'counterName'
p2095
I1
sS'datasrchttpichefbbcicoukwwhpwidthcpsprodpb15B47production86730988jiangyfjpg'
p2096
I1
sS'overridden'
p2097
I1
sS'wallpaper'
p2098
I4
sS'altGoogle'
p2099
I1
sS'British'
p2100
I3
sS'validateSerialisationfunctionvar'
p2101
I1
sS'rolebanner'
p2102
I1
sS'decodeURIComponentRegExp1ifoverridesthisidthissegmentSetindexOfoverridesthisid1throw'
p2103
I1
sS'Autosa'
p2104
I1
sS'\xd0\xa3\xd0\x9a\xd0\xa0\xd0\x90\xd0\x87\xd0\x9d\xd0\xa1\xd0\xac\xd0\x9aA'
p2105
I1
sS'light'
p2106
I1
sS'Kinyarwanda'
p2107
I1
sS'\xd9\x81\xd8\xb1\xd8\xa7\xd9\x86\xd8\xb3'
p2108
I2
sS'chief'
p2109
I1
sS'Weather'
p2110
I1
sS'wsheadlinevietnamese'
p2111
I1
sS'sfunction'
p2112
I1
sS'revworldinpictures5headline'
p2113
I1
sS'including'
p2114
I1
sS'datasrchttpichefbbcicoukwwhpwidthibroadcastimageslivep0387dp0387d1fjpg'
p2115
I1
sS'Metalimg'
p2116
I1
sS'write'
p2117
I1
sS'Devprayag'
p2118
I1
sS'idstringthrow'
p2119
I1
sS'GooglesummarytypestaticBasebbcdotcomstaticHosthttpstaticbbcicoukstaticVersion03343staticPrefixhttpstaticbbcicoukbbcdotcom03343dataHttptpsbbccomdataHttpssslbbccomflagHttpwwwbbccoukflagHttpssslbbccoukanalyticsHttpsabbccomanalyticsHttpsssabbccom'
p2120
I1
sS'surgeons'
p2121
I1
sS'li'
p2122
I336
sS'classtoplistitembullet1span'
p2123
I1
sS'bbcdotcomasyncSlot'
p2124
I10
sS'classwslanguagenative'
p2125
I28
sS'\xd0\xa0\xd0\xa3\xd0\xa1\xd0\xa1\xd0\x9a\xd0\x9e\xd0\x9c'
p2126
I1
sS'2015'
p2127
I4
sS'2016'
p2128
I1
sS'classorbbannercontent'
p2129
I1
sS'content297814326937641'
p2130
I1
sS'nvar'
p2131
I1
sS'classorbnavnature'
p2132
I2
sS'nsuxcName'
p2133
I1
sS'Can'
p2134
I2
sS'front'
p2135
I3
sS'nameEqnamecawindowbbccookiesgetsplit'
p2136
I1
sS'day'
p2137
I4
sS'presidential'
p2138
I1
sS'ariahiddentruei'
p2139
I1
sS'classvideosmpdiv'
p2140
I1
sS'worlds'
p2141
I1
sS'Supreme'
p2142
I1
sS'promomanagerOverridep'
p2143
I1
sS'Guidancea'
p2144
I1
sS'bbcdotcomcurrencyProviders'
p2145
I2
sS'pfunction'
p2146
I1
sS'\xe1\x80\x99\xe1\x80\xbc\xe1\x80\x94\xe1\x80\xba\xe1\x80\x99\xe1\x80\xac'
p2147
I1
sS'revworldinpictures5overlay'
p2148
I1
sS'altLe'
p2149
I1
sS'truth'
p2150
I2
sS'crossing'
p2151
I2
sS'classtoplistitemheadlineVWs'
p2152
I1
sS'hrefsportfootball34841990'
p2153
I2
sS'toplistitemavatar'
p2154
I8
sS'relay1httpstaticbbcicoukframeworksrelay026sharedmodulesrelay1'
p2155
I1
sS'classwslanguagelink'
p2156
I28
sS'datasrchttpichefbbcicoukwwhpwidthcpsprodpb9D5Bproduction86738204zaynjpg'
p2157
I1
sS'srchttpstaticbbcicoukbbcdotcom03343scriptorbbbcdotcomjsx3Cscript'
p2158
I1
sS'demi1httpstaticbbcicoukframeworksdemi0100sharedmodulesdemi1'
p2159
I1
sS'Scientists'
p2160
I1
sS'ididctalink'
p2161
I1
sS'dataaltMohamed'
p2162
I1
sS'httpempbbcicoukempbump3bump3'
p2163
I1
sS'documentdocumentElementclassName'
p2164
I2
sS'sabbccoukbbcbbcs'
p2165
I1
sS'meta'
p2166
I9
sS'hrefsport'
p2167
I1
sS'our'
p2168
I4
sS'out'
p2169
I5
sS'hrefprivacycookiesaboutCookiesa'
p2170
I1
sS'arrayifoverridesnulloverridesthisidthissegmentoverridesthisidelseifstoredItemthisstoregetItemthisidthissegmentstoredItemsegmentelseifthisstartTsnownowthissignupEndTsnowthisendTsthisstoreisEnabledtruethissegmentpicksegmentsthisrateifoptsendundefinedthisstoresetItemthisidsegmentthissegmentelsethisstoresetItemthisidsegmentthissegmentendthisendTslogcallthismandolinsegmentlogcallthismandolinviewwindowbbcMandolinprototypegetSegmentfunctionreturn'
p2171
I1
sS'onError'
p2172
I1
sS'announces'
p2173
I1
sS'stux'
p2174
I1
sS'dataindex9'
p2175
I1
sS'attack\xe2\x80\x99img'
p2176
I1
sS'dataindex6'
p2177
I1
sS'revvideoheadline'
p2178
I11
sS'performs'
p2179
I1
sS'srchttpstaticbbcicoukwwhp1890modulesvendormodernizrmodernizrjs'
p2180
I1
sS'wslanguageps'
p2181
I1
sS'idorbpanel'
p2182
I1
sS'idbbccommodulefeature21234'
p2183
I1
sS'This'
p2184
I1
sS'dataindex2'
p2185
I1
sS'altDutch'
p2186
I1
sS'revhero4overlay'
p2187
I1
sS'dataaltMoreMenuspan'
p2188
I1
sS'g'
p2189
I3
sS'could'
p2190
I4
sS'falsesetPolicyfunctionoreturn'
p2191
I1
sS'clearimg'
p2192
I1
sS'orbnaviddefault'
p2193
I1
sS'propertyogurl'
p2194
I1
sS'qualification'
p2195
I3
sS'hrefnepali'
p2196
I1
sS'classwsradioprogrammeonairOn'
p2197
I1
sS'scare'
p2198
I2
sS'south'
p2199
I1
sS'libcorehttpstaticbbcicoukwwhp1890moduleslibcore'
p2200
I1
sS'panelcontent'
p2201
I1
sS'classmostpopular'
p2202
I1
sS'owner'
p2203
I1
sS'RegExp'
p2204
I1
sS'hreftravelTravela'
p2205
I2
sS'qnew'
p2206
I1
sS'modulevideo'
p2207
I1
sS'strict'
p2208
I1
sS'httpstaticbbcicoukid03225modulesidctaidcta1'
p2209
I1
sS'unknown'
p2210
I1
sS'system'
p2211
I2
sS'classwslanguagestitle'
p2212
I1
sS'datawwhpmoduleheader'
p2213
I1
sS'interests'
p2214
I1
sS'Abdeslamquotquotpidquotquotp0389z9nquotquotsourcenamequotquotEuropequotquotsourceurlquotquotnewsworldeuropequotquotcreatedquotquot20151117T0918140000quotquotupdatedquotquot20151117T1217110000quotquotorigincodequotquotcpsprodpbquotquotgeliconquotquotvideoquotquotallowadvertisingquottruequotdurationquotquotPT1M55Squot'
p2215
I1
sS'videoitem4'
p2216
I1
sS'scarequotquoturlquotquotnewsworldeurope34851875quotquotsummaryquotquotFans'
p2217
I1
sS'hrefnewsbusiness34853515'
p2218
I1
sS'hrefhttpwwwbbccomcapitalstory20151111dochildprodigiescosttheirparentsmore'
p2219
I2
sS'defaultasia'
p2220
I1
sS'bbccouk'
p2221
I1
sS'hrefvietnamese'
p2222
I1
sS'biggest'
p2223
I2
sS'hrefhttpwwwbbccomcapital'
p2224
I3
sS'idorbmodules'
p2225
I1
sS'requireconfig'
p2226
I1
sS'wwhpEdition'
p2227
I6
sS'haven'
p2228
I2
sS'Hausa'
p2229
I1
sS'setAnalyticsEnabled'
p2230
I1
sS'Sheens'
p2231
I1
sS'srchttpichefbbcicoukwwhp144cpsprodpb11B19production86737427gettyimages103933291jpg'
p2232
I1
sS'hrefhttpwwwbbccoukpersian'
p2233
I1
sS'datavideoquotcontenttypequotquotvideoquotquotnumquotquot10quotquottitlequotquotChina'
p2234
I1
sS'addEvent'
p2235
I1
sS'datasrchttpichefbbcicoukwwhpwidthcpsprodpbD2F3production8673004586730044jpg'
p2236
I1
sS'content187214818032936'
p2237
I1
sS'revprimaryspecialfeaturessource'
p2238
I2
sS'orbfooterpromoloaded'
p2239
I1
sS'false'
p2240
I7
sS'Richard'
p2241
I4
sS'Flying'
p2242
I1
sS'dataaltBaxter'
p2243
I1
sS'Newsa'
p2244
I2
sS'have'
p2245
I7
sS'divdivdiv'
p2246
I10
sS'linked'
p2247
I3
sS'mapidapp1'
p2248
I1
sS'Photos'
p2249
I2
sS'hrefnewsworldasia34849363'
p2250
I2
sS'which'
p2251
I7
sS'bus'
p2252
I3
sS'medialistitem5'
p2253
I4
sS'medialistitem4'
p2254
I5
sS'medialistitem7'
p2255
I2
sS'medialistitem6'
p2256
I3
sS'medialistitem1'
p2257
I7
sS'Nadu'
p2258
I1
sS'medialistitem2'
p2259
I7
sS'promoManagerinitdocumentgetElementByIdnavporbfooterpromo'
p2260
I1
sS'BBCa'
p2261
I2
sS'expires'
p2262
I2
sS'relstylesheet'
p2263
I2
sS'altmap'
p2264
I1
sS'dataaltStep'
p2265
I1
sS'Modi'
p2266
I2
sS'datasrchttpichefbbcicoukwwhpwidthibroadcastimageslivep0387cp0387c0djpg'
p2267
I1
sS'segment'
p2268
I1
sS'class'
p2269
I2
sS'srcdataimagegifbase64R0lGODlhEAAJAIAAAPwAAACH5BAEAAAAALAAAAAAQAAkAAAIKhIpy0Po5yUFQA7'
p2270
I47
sS'altCharlie'
p2271
I1
sS'url'
p2272
I6
sS'face'
p2273
I4
sS'youspan'
p2274
I1
sS'monthsquotquotimgquotquothttpichefbbcicoukwwhp800cpsprodpb2E1Cproduction8674081186740809jpgquotquotimgalttextquotquotFrancois'
p2275
I1
sS'Partimg'
p2276
I1
sS'hrefnewsmagazine34843770'
p2277
I2
sS'tageurope'
p2278
I2
sS'Lessons'
p2279
I1
sS'Matt'
p2280
I2
sS'Paris'
p2281
I23
sS'httpwwwbbccoukwwscriptsflagx3Cscript'
p2282
I1
sS'threath3'
p2283
I1
sS'classmoduletitlelink'
p2284
I8
sS'soldiers'
p2285
I2
sS'Nga'
p2286
I3
sS'partners'
p2287
I1
sS'wslanguagemy'
p2288
I1
sS'based'
p2289
I1
sS'\xd8\xaf\xd8\xb1'
p2290
I2
sS'should'
p2291
I1
sS'dataactivesrchttpstaticbbcicoukframeworksbarlesque29313orb4imgorbsearchdarkpng'
p2292
I1
sS'bbcdotcomdatastats'
p2293
I5
sS'typetexttemplate'
p2294
I1
sS'requireapp'
p2295
I1
sS'bfootergreywhite'
p2296
I1
sS'namemsvalidate01'
p2297
I1
sS'orblibevent'
p2298
I1
sS'hrefnewshealth'
p2299
I1
sS'documentbodyappendChilde'
p2300
I1
sS'dataaltChina'
p2301
I1
sS'rolecomplementary'
p2302
I1
sS'hrefhttpwwwbbccomDesktop'
p2303
I1
sS'Homea'
p2304
I1
sS'onew'
p2305
I2
sS'requireidctastatusbar'
p2306
I1
sS'129'
p2307
I1
sS'typetextjavascript'
p2308
I7
sS'gadstype'
p2309
I1
sS'hrefprivacycookiesinternationalAd'
p2310
I1
sS'classbf'
p2311
I1
sS'srchttpstaticbbcicoukframeworksbarlesque29313orb4imgorbsearchlightpng'
p2312
I1
sS'glory'
p2313
I2
sS'bbcdotcomhttpstaticbbcicoukbbcdotcom03343script'
p2314
I1
sS'classfeatures'
p2315
I2
sS'h'
p2316
I4
sS'hrefhttpadvertisingbbcworldwidecomAdvertise'
p2317
I1
sS'istatsaddCollectorname'
p2318
I1
sS'Hardison'
p2319
I1
sS'Rodriguez'
p2320
I2
sS'jcookiesplit'
p2321
I1
sS'idblqglobal'
p2322
I1
sS'Lesbosimg'
p2323
I1
sS'Driving'
p2324
I1
sS'modulecontentcompound'
p2325
I1
sS'setAdKeyValue'
p2326
I1
sS'Moroccanorigin'
p2327
I1
sS'module'
p2328
I1
sS'typeofdocument'
p2329
I2
sS'altCredit'
p2330
I3
sS'stats'
p2331
I2
sS'hrefbengali'
p2332
I1
sS'hrefhttpwwwbbccomnewsworldasiaindia34784537'
p2333
I1
sS'genius'
p2334
I2
sS'state'
p2335
I5
sS'dataaltAbdelhamid'
p2336
I1
sS'progress'
p2337
I1
sS'hrefnewsbeathome'
p2338
I1
sS'srchttpstaticbbcicoukframeworksbarlesque29313orb4imgbbcblockslightpng'
p2339
I1
sS'Leespan'
p2340
I2
sS'idorbaside'
p2341
I1
sS'hrefhttpstaticbbcicoukwwhp1890responsivecsswwhpmincss'
p2342
I1
sS'importance'
p2343
I3
sS'Sri'
p2344
I3
sS'hrefnewsworldeurope34840943'
p2345
I2
sS'\xd0\x9d\xd0\x90'
p2346
I1
sS'jcarousel1httpstaticbbcicoukframeworksjcarousel0110modulesjcarousel1'
p2347
I1
sS'key'
p2348
I2
sS'group'
p2349
I2
sS'windowlocationpathname'
p2350
I1
sS'titleBangla'
p2351
I1
sS'hits'
p2352
I3
sS'classwsheadlinelanguage'
p2353
I4
sS'always'
p2354
I5
sS'career'
p2355
I2
sS'Molenbeek'
p2356
I1
sS'advertsponsordiv'
p2357
I4
sS'hrefhttpwwwbbccouk'
p2358
I1
sS'hrefnewsbusiness34844090'
p2359
I1
sS'gadssrc'
p2360
I1
sS'swallow'
p2361
I3
sS'tagnews'
p2362
I6
sS'relevant'
p2363
I1
sS'hrefcbbcCBBCa'
p2364
I2
sS'gone'
p2365
I2
sS'runwayquotquoturlquotquotnewsukenglandbirmingham28420222quotquotimgquotquothttpichefbbcicoukwwhp800mcsmediaimages76437000png76437640airportpngquotquotallowadvertisingquottruequotpidquotquotp023d0wyquotquotdurationquotquotPT1M38SquotquotsourcenamequotquotBirmingham'
p2366
I1
sS'migrant'
p2367
I2
sS'storeDatathisgetItemsreturn'
p2368
I1
sS'storeDatathisgetItemsstoreDatakeyvaluethissavestoreDatareturn'
p2369
I1
sS'C919'
p2370
I6
sS'revlanguageslink'
p2371
I32
sS'initialscale10'
p2372
I1
sS'idbbccomnative1234'
p2373
I1
sS'documentcookiematchbcknspolicyddd'
p2374
I1
sS'Timestamp'
p2375
I1
sS'requiredomReadycompiled'
p2376
I1
sS'Hollande'
p2377
I1
sS'baseUrl'
p2378
I1
sS'httpstaticbbcicoukid03225modulesidctastatusbar'
p2379
I1
sS'ctaenabled'
p2380
I1
sS'tagasiannews'
p2381
I4
sS'srchttpichefbbcicoukwwhp144cpsprodpb9ADAproduction86624693kalyanilodhiathelanguageoffaithjpg'
p2382
I1
sS'altGaz'
p2383
I1
sS'Thailand'
p2384
I1
sS'classvideoitem'
p2385
I10
sS'classorbnavmusic'
p2386
I2
sS'placeholderEnter'
p2387
I1
sS'datasrchttpichefbbcicoukwwhpwidthcpsprodpb0F48production86721930sheentodayjpg'
p2388
I1
sS'Airlines'
p2389
I3
sS'idbbccookiescontinue'
p2390
I1
sS'World'
p2391
I2
sS'screenresolution'
p2392
I1
sS'GMTkadstruepersonalisationtrueperformancetruenecessarytruefunction'
p2393
I1
sS'hrefsportfootballeuropean'
p2394
I1
sS'hrefgahuza'
p2395
I2
sS'revhero2source'
p2396
I1
sS'picksegmentsratevar'
p2397
I1
sS'Gettyimg'
p2398
I1
sS'qpsplitowhileqlengthcoukcomindexOfqjoin1ifqlengthopushqjoinqshiftfcacheporeturn'
p2399
I1
sS'classorbnavfuture'
p2400
I2
sS'value'
p2401
I2
sS'classorbnavcbbc'
p2402
I2
sS'classweathereditEdita'
p2403
I1
sS'Artsa'
p2404
I1
sS'windowlocation'
p2405
I2
sS'attack\xe2\x80\x99'
p2406
I2
sS'moduleprimaryspecialfeatures'
p2407
I1
sS'tagearth'
p2408
I1
sS'contentBBC'
p2409
I1
sS'srchttpstaticbbcicoukbbcdotcom03343scriptorbadvertsadSuitesjsx3Cscript'
p2410
I1
sS'Bangla'
p2411
I1
sS'hrefeducationBitesizea'
p2412
I2
sS'ratenumberMathrandomratereturn'
p2413
I1
sS'hrefhttpwwwbbccomcapitalstory20151111theawkwardlinebetweenfriendandcustomer'
p2414
I2
sS'hrefnewsscienceandenvironment'
p2415
I1
sS'classorbbanneroptions'
p2416
I1
sS'revworldinpictures4headline'
p2417
I1
sS'classwsradiotitlelink'
p2418
I1
sS'riddled'
p2419
I5
sS'promoLoaded'
p2420
I1
sS'httpssslbbccomidsignin'
p2421
I1
sS'hrefnewsmagazine34722937'
p2422
I2
sS'setAdsEnabled'
p2423
I1
sS'party'
p2424
I2
sS'50924'
p2425
I1
sS'Marcus'
p2426
I1
sS'phi'
p2427
I2
sS'hrefhttpwwwbbccomculturestory20151117whylamarseillaiseistheonlysongthatmattersrightnow'
p2428
I2
sS'orbnavfocus'
p2429
I3
sS'datavideoquotcontenttypequotquotvideoquotquotnumquotquot10quotquottypequotquotMAPquotquottitlequotquotWembley'
p2430
I1
sS'titlePashto'
p2431
I1
sS'p1function'
p2432
I1
sS'idpage'
p2433
I1
sS'dataaltGoogle'
p2434
I1
sS'tagfeatureEditor\xe2\x80\x99s'
p2435
I1
sS'off'
p2436
I6
sS'reveditorspickssource'
p2437
I7
sS'locprotocol'
p2438
I1
sS'i'
p2439
I1
sS'Syrian'
p2440
I2
sS'well'
p2441
I2
sS'Idea'
p2442
I2
sS'thought'
p2443
I1
sS'Canadaa'
p2444
I1
sS'hrefworldserviceradio'
p2445
I1
sS'Suspects'
p2446
I2
sS'windowistatscountername'
p2447
I2
sS'bbcdotcomslotAsyncmpumiddle'
p2448
I1
sS'hrefhttpwwwbbccomnewsbusiness34831046'
p2449
I2
sS'documentlocationprotocol'
p2450
I3
sS'sources'
p2451
I1
sS'orbjs'
p2452
I1
sS'\xd9\x88\xdb\x8c\xd8\xaf\xd8\xa6\xd9\x88\xdb\x8c\xdb\x8c'
p2453
I2
sS'desktopuicarouselfactoryhttpstaticbbcicoukwwhp1890modulesdesktopuicarouselfactory'
p2454
I1
sS'Azeri'
p2455
I1
sS'ads'
p2456
I2
sS'Friday'
p2457
I4
sS'fled'
p2458
I1
sS'hrefnewsworldeurope34851875'
p2459
I2
sS'other'
p2460
I1
sS'classforecastimage'
p2461
I4
sS'DatepsetHours0psetMinutes0psetSeconds0psetMilliseconds0ifbbccookiesPOLICYREFRESHDATEMILLISpgetTimevar'
p2462
I1
sS'datasrchttpichefbbcicoukwwhpwidthibroadcastimageslivep0389sp0389sqjjpg'
p2463
I1
sS'smart'
p2464
I2
sS'revsecondaryspecialfeaturesoverlay'
p2465
I2
sS'classvideocontent'
p2466
I1
sS'wallpapersetDomElementbbccomwallpaper'
p2467
I1
sS'thatp'
p2468
I1
sS'Lauer'
p2469
I1
sS'altTill'
p2470
I1
sS'loadChartbeat'
p2471
I3
sS'functionnode'
p2472
I1
sS'loss'
p2473
I2
sS'classorbnavnewsdotcom'
p2474
I2
sS'hrefhttpsearchbbccouksearch'
p2475
I1
sS'England'
p2476
I4
sS'success'
p2477
I1
sS'hrefhttpwwwbbccomnewsbusiness34810552'
p2478
I2
sS'relcanonical'
p2479
I1
sS'idwwhp'
p2480
I1
sS'figmanagerconfirm'
p2481
I1
sS'refugees'
p2482
I2
sS'page'
p2483
I2
sS'revhero1headline'
p2484
I1
sS'because'
p2485
I1
sS'footage'
p2486
I1
sS'library'
p2487
I1
sS'documentcookieindexOfcknsorbnopromo1'
p2488
I1
sS'\xd8\xa7\xd8\xb6\xd8\xa7\xd9\x81\xdb\x81'
p2489
I2
sS'sfasyncconfigpath'
p2490
I1
sS'oifohasOwnPropertypstrptypeof'
p2491
I1
sS'Jonathan'
p2492
I1
sS'HomepagewwhpEdition'
p2493
I2
sS'promoloadthaturl'
p2494
I1
sS'Singapore'
p2495
I1
sS'However'
p2496
I1
sS'revmorebbcoverlay'
p2497
I7
sS'classmodulecontent'
p2498
I14
sS'actionhttpsearchbbccouksearch'
p2499
I1
sS'classweatherinput'
p2500
I1
sS'datasrchttpichefbbcicoukwwhpwidthcpsprodpb14771production866528381024ldbth209sketchofanijpg'
p2501
I1
sS'srchttpstaticbbcicoukframeworksbarlesque29313orb4imgorbsearchdarkpng'
p2502
I1
sS'classorbfooterinner'
p2503
I2
sS'hrefnewsworldafrica'
p2504
I1
sS'desktopuiweatherhttpstaticbbcicoukwwhp1890modulesdesktopuiweather'
p2505
I1
sS'Us'
p2506
I2
sS'host'
p2507
I1
sS'windowpromomanagerOverride'
p2508
I2
sS'getJsPrefix'
p2509
I1
sS'busimg'
p2510
I1
sS'Futurea'
p2511
I1
sS'stage'
p2512
I3
sS'about'
p2513
I4
sS'classorbnavweather'
p2514
I2
sS'carried'
p2515
I2
sS'world'
p2516
I4
sS'6am'
p2517
I1
sS'classicon'
p2518
I1
sS'US'
p2519
I4
sS'UN'
p2520
I2
sS'hrefnewsworldasiaindia34848275'
p2521
I2
sS'classorbpanelcontent'
p2522
I1
sS'useSSL'
p2523
I2
sS'jquery14httpstaticbbcicoukframeworksjquery030sharedmodulesjquery14'
p2524
I1
sS'googletagdisplaybbccomwallpaper'
p2525
I1
sS'h2'
p2526
I36
sS'h3'
p2527
I133
sS'h1'
p2528
I1
sS'Two'
p2529
I1
sS'billions'
p2530
I2
sS'Stadium'
p2531
I3
sS'tagvideos'
p2532
I6
sS'revsecondaryspecialfeaturesheader'
p2533
I2
sS'wslanguagern'
p2534
I1
sS'Most'
p2535
I1
sS'friends'
p2536
I3
sS'idorbbanner'
p2537
I1
sS'classmediasummary'
p2538
I26
sS'Andhra'
p2539
I1
sS'adsdebugtestwindowlocationhref'
p2540
I1
sS'var'
p2541
I32
sS'November'
p2542
I4
sS'propertyfbappid'
p2543
I1
sS'wslanguagerw'
p2544
I1
sS'wslanguageru'
p2545
I1
sS'function'
p2546
I73
sS'bbcdotcomConfig'
p2547
I2
sS'moduleeditorspicks'
p2548
I1
sS'aircraft'
p2549
I2
sS'Science'
p2550
I1
sS'setSwfPrefix'
p2551
I1
sS'Yefei'
p2552
I1
sS'titleUrdu'
p2553
I2
sS'revhero3overlay'
p2554
I1
sS'eat'
p2555
I2
sS'modulepromo'
p2556
I1
sS'he'
p2557
I2
sS'revhero4source'
p2558
I1
sS'made'
p2559
I3
sS'settingsa'
p2560
I1
sS'places'
p2561
I2
sS'idbbccookiesprompt'
p2562
I1
sS'functionstatusbar'
p2563
I1
sS'j'
p2564
I1
sS'staticchartbeatcomjschartbeatjs'
p2565
I1
sS'signed'
p2566
I1
sS'89'
p2567
I2
sS'CDATA'
p2568
I33
sS'classmedialist'
p2569
I7
sS'bump3empbbcicoukempbump3bump3'
p2570
I1
sS'classwsheadlineslist'
p2571
I1
sS'iconsearchspan'
p2572
I1
sS'cookieAphidMatch1'
p2573
I1
sS'datasrchttpichefbbcicoukwwhpwidthcpsprodpb7ADCproduction86725413122195649947021139201635961472730376401644njpg'
p2574
I1
sS'runway'
p2575
I3
sS'datasrchttpichefbbcicoukwwhpwidthibroadcastimageslivep02zb2p02zb2rljpg'
p2576
I2
sS'bbcdotcomutilsaddHtmlTagClassbbcdotcomexdp'
p2577
I1
sS'revregionalnewsheadline'
p2578
I4
sS'istats'
p2579
I4
sS'revvideosource'
p2580
I11
sS'Brain'
p2581
I2
sS'deadly'
p2582
I1
sS'40'
p2583
I3
sS'datasrchttpichefbbcicoukwwhpwidthcpsprodpb2E1Cproduction8674081186740809jpg'
p2584
I1
sS'revworldserviceheader'
p2585
I1
sS'Fridays'
p2586
I1
sS'functione'
p2587
I1
sS'strOBJECTTOKENfunction'
p2588
I1
sS'setCssPrefix'
p2589
I1
sS'signinurl'
p2590
I1
sS'album'
p2591
I1
sS'hrefjapanese'
p2592
I1
sS'addHtmlTagClass'
p2593
I1
sS'worker'
p2594
I2
sS'orbfiguk'
p2595
I2
sS'datasrchttpichefbbcicoukwwhpwidthmcsmediaimages76437000png76437640airportpng'
p2596
I1
sS'\xe0\xb7\x83\xe0\xb7\x92\xe0\xb6\x82\xe0\xb7\x84\xe0\xb6\xbd'
p2597
I1
sS'classcorrespondentheadlines'
p2598
I1
sS'Act'
p2599
I2
sS'taguscanada'
p2600
I1
sS'mastermind'
p2601
I2
sS'ariahiddentrue'
p2602
I50
sS'charactersimg'
p2603
I1
sS'datavideoquotcontenttypequotquotvideoquotquotnumquotquot10quotquottitlequotquotFirst'
p2604
I1
sS'compiledhttpstaticbbcicoukwwhp1890modulescompiled'
p2605
I1
sS'khi\xe1\xba\xbfn'
p2606
I2
sS'diagnosis'
p2607
I1
sS'revmostpopularlink'
p2608
I5
sS'4d'
p2609
I1
sS'\xc2\xa3530m'
p2610
I1
sS'documentgetElementsByTagNamebody0'
p2611
I2
s.